((dp0
S'arm_dbg_args'
p1
S'-via:"c:\\Users\\Bilal\\Repositories\\GameJam2\\build_game_vc11\\game_vc11_arm_debug.via" -qemu'
p2
sS'game-icf'
p3
S''
p4
sS'dist'
p5
NsS'csproj'
p6
g4
sS'module_path_append'
p7
NsS'global_path'
p8
S'c:\\users\\bilal\\repositories'
p9
sS'system_path'
p10
S'c:\\marmalade\\6.3.3beta\\s3e\\makefile_builder'
p11
sS'android_x86_dbg_args'
p12
S'../../tools/DeployTool/DeployTool.exe --dir "c:\\Users\\Bilal\\Repositories\\GameJam2\\build_game_vc11"'
p13
sS'use_prebuilt'
p14
NsS'arm_rel_rtsm_args'
p15
S'-via:"c:\\Users\\Bilal\\Repositories\\GameJam2\\build_game_vc11\\game_vc11_arm_release.via" -qemu'
p16
sS'amd64'
p17
NsS'line-width'
p18
I80
sS'gcc_dbg_args'
p19
S'-via:"c:\\Users\\Bilal\\Repositories\\GameJam2\\build_game_vc11\\game_vc11_gcc_debug.via" -qemu'
p20
sS'android-x86'
p21
NsS'x86_dbg_exe'
p22
S'c:/marmalade/6.3.3beta/s3e\\win32\\s3e_simulator_debug.exe'
p23
sS'disable-runtime-checks'
p24
NsS'release'
p25
NsS'no-make'
p26
NsS'optimise-size'
p27
NsS'output-name-debug'
p28
g4
sS'arm-fpu'
p29
S'vfp'
p30
sS'psp'
p31
NsS'proj_name'
p32
S'game_vc11'
p33
sS'rvct-version'
p34
S'none'
p35
sS'compiler'
p36
g4
sS'execute'
p37
NsS'compile-static'
p38
NsS'msvc-project'
p39
NsS'buildenv'
p40
g4
sS'quick'
p41
NsS'module_path'
p42
(lp43
S'c:/marmalade/6.3.3beta/examples'
p44
asS'use-release-std-libs'
p45
NsS'using_perforce'
p46
I00
sS'mips-s3e'
p47
NsS'shared-arm-lib'
p48
NsS'arm-cpu'
p49
S'6'
p50
sS'compile-thumb'
p51
NsS'no-ide'
p52
NsS'msvc-version'
p53
S'6.0'
p54
sS'arm'
p55
NsS'builddir'
p56
g4
sS'compile-debug-as-release'
p57
I0
sS'brief'
p58
NsS'dll'
p59
NsS'buildenv-toolset'
p60
g4
sS'version'
p61
NsS'ccache'
p62
I0
sS'offline'
p63
NsS'ios-version'
p64
g4
sS'jobs'
p65
I0
sS'linkflags'
p66
NsS'debug'
p67
NsS'gcc_rel_rtsm_args'
p68
S'-via:"c:\\Users\\Bilal\\Repositories\\GameJam2\\build_game_vc11\\game_vc11_gcc_release.via" -qemu'
p69
sS'done_defaults'
p70
I1
sS'path'
p71
NsS's3e-data-dir'
p72
S'c:/Users/Bilal/Repositories/GameJam2/data'
p73
sS'enable-exceptions'
p74
I1
sS'osx-dll'
p75
NsS'extension'
p76
g4
sS'no-vc6'
p77
NsS'non-interactive'
p78
NsS'win32-console'
p79
NsS'nds'
p80
NsS'dist-format'
p81
g4
sS's3e-force-arch'
p82
NsS'dump_defines'
p83
NsS'verbose'
p84
I0
sS'psp-minis'
p85
NsS'gcc-version'
p86
g4
sS'x86_dbg_args'
p87
S'-via:"c:\\Users\\Bilal\\Repositories\\GameJam2\\build_game_vc11\\game_vc11_debug.via"'
p88
sS'arm-debugger'
p89
g4
sS'use_temp_extension'
p90
NsS'log'
p91
NsS'no-strip'
p92
NsS'rebuild'
p93
NsS'win32-simulator-dll'
p94
NsS'strict'
p95
NsS'mips_dbg_args'
p96
g13
sS'enable-global-path'
p97
NsS'iphone'
p98
NsS'cflags'
p99
NsS'dist-dir'
p100
g4
sS'jflags'
p101
NsS'csprojSDKRefs'
p102
g4
sS'distcc'
p103
NsS'external-compiler'
p104
NsS'no-distcc'
p105
NsS'preinclude'
p106
NsS'using_sdk'
p107
I01
sS'nologo'
p108
NsS'warn-level'
p109
I2
sS'mips_dbg_exe'
p110
S'c:\\marmalade\\6.3.3beta\\s3e\\makefile_builder\\tool_launcher.exe'
p111
sS'mkb_in'
p112
S'c:/Users/Bilal/Repositories/GameJam2/game.mkb'
p113
sS'arm_dbg_exe'
p114
S'c:/marmalade/6.3.3beta/s3e\\bin\\armdebug.exe'
p115
sS'csprojDLLRef'
p116
NsS'android_x86_dbg_exe'
p117
g111
sS'test-config'
p118
g4
sS'list-targets'
p119
NsS'arm_rel_exe'
p120
g111
sS'arm_rel_args'
p121
g13
sS'makedeps'
p122
NsS'android_x86_rel_exe'
p123
g111
sS'default-buildenv'
p124
S'VC11'
p125
sS'x86_rel_exe'
p126
g23
sS'preprocess-java'
p127
NsS'mips_rel_args'
p128
g13
sS'defines'
p129
NsS'lib'
p130
NsS'global_argv'
p131
(lp132
S'C:\\Marmalade\\6.3.3BETA\\s3e\\makefile_builder\\mkb.py'
p133
aS'C:\\Users\\Bilal\\Repositories\\GameJam2\\game.mkb'
p134
asS'make'
p135
NsS'optimise-speed'
p136
I1
sS'internal'
p137
NsS'enable-stdinc'
p138
NsS'deploy-only'
p139
NsS'x86'
p140
NsS'deploy'
p141
g4
sS'x86_run_exe'
p142
S'c:/marmalade/6.3.3beta/s3e\\win32\\s3e_console.exe'
p143
sS'x86_rel_args'
p144
S'-via:"c:\\Users\\Bilal\\Repositories\\GameJam2\\build_game_vc11\\game_vc11_release.via"'
p145
sS'gcc_rel_args'
p146
g13
sS'mips'
p147
NsS'incredibuild'
p148
NsS'strict-compile'
p149
NsS'use-auto-subdirs'
p150
NsS'mips_rel_exe'
p151
g111
sS'android_x86_rel_args'
p152
g13
sS'app-icf'
p153
g4
sS'deployargs'
p154
NsS'mkf_in'
p155
(lp156
Vc:\u005cusers\u005cbilal\u005cappdata\u005croaming\u005cmarmalade\u005cpackages\u005c6.3.3\u005csqlite_3.6.10\u005csqlite.mkf
p157
aS'c:\\marmalade\\6.3.3beta\\modules\\iw2d\\iw2d.mkf'
p158
aS'c:\\marmalade\\6.3.3beta\\modules\\iwgx\\iwgx.mkf'
p159
aS'c:\\marmalade\\6.3.3beta\\modules\\iwgeom\\iwgeom.mkf'
p160
aS'c:\\marmalade\\6.3.3beta\\modules\\iwutil\\iwutil.mkf'
p161
aS'c:\\marmalade\\6.3.3beta\\modules\\third_party\\libjpeg\\libjpeg.mkf'
p162
aS'c:\\marmalade\\6.3.3beta\\modules\\third_party\\libpng\\libpng.mkf'
p163
aS'c:\\marmalade\\6.3.3beta\\modules\\third_party\\zlib\\zlib.mkf'
p164
aS'c:\\marmalade\\6.3.3beta\\modules\\iwresmanager\\iwresmanager.mkf'
p165
aS'c:\\marmalade\\6.3.3beta\\modules\\iwgl\\iwgl.mkf'
p166
aS'c:\\marmalade\\6.3.3beta\\modules\\iwgxfont\\iwgxfont.mkf'
p167
aS'c:\\marmalade\\6.3.3beta\\modules\\third_party\\tiniconv\\tiniconv.mkf'
p168
aS'c:\\marmalade\\6.3.3beta\\examples\\soundengine\\soundengine.mkf'
p169
aS'c:\\marmalade\\6.3.3beta\\extensions\\messagebox\\messagebox.mkf'
p170
aS'c:\\users\\bilal\\repositories\\gamejam2\\spine.mkf'
p171
asS'strict-mkb'
p172
NsS'executeargs'
p173
NsS'clean'
p174
NsS'no-asm'
p175
NsS'output-name'
p176
g4
sS'no-modules'
p177
NsS'find_define'
p178
g4
s(dp179
S'c:\\marmalade\\6.3.3beta\\s3e\\makefile_builder\\mkb_globals.pyc'
p180
F1377167712.0
sS'c:\\marmalade\\6.3.3beta\\s3e\\makefile_builder\\plugins\\xcode4_schememanagement.pyc'
p181
F1377850110.4082034
sS'c:\\marmalade\\6.3.3beta\\s3e\\makefile_builder\\plugins\\null.pyc'
p182
F1377167712.0
sS'c:\\marmalade\\6.3.3beta\\s3e\\makefile_builder\\templates\\template.opt'
p183
F1377166940.0
sS'c:\\marmalade\\6.3.3beta\\s3e\\makefile_builder\\plugins\\s3e_qmake.py'
p184
F1377166940.0
sS'c:\\marmalade\\6.3.3beta\\s3e\\makefile_builder\\plugins\\s3e_web.pyc'
p185
F1377167712.0
sS'c:\\marmalade\\6.3.3beta\\s3e\\makefile_builder\\templates\\win32_dsw.pyc'
p186
F1377167714.0
sS'c:\\marmalade\\6.3.3beta\\s3e\\makefile_builder\\docs\\parse_options.pyc'
p187
F1377167714.0
sS'c:\\marmalade\\6.3.3beta\\s3e\\makefile_builder\\plugins\\xcode4_schememanagement.py'
p188
F1377166940.0
sS'c:\\marmalade\\6.3.3beta\\s3e\\makefile_builder\\tool_launcher.exe'
p189
F1377167558.0
sS'c:\\marmalade\\6.3.3beta\\s3e\\makefile_builder\\templates\\win32_vcproj.pyc'
p190
F1377167714.0
sS'c:\\marmalade\\6.3.3beta\\s3e\\makefile_builder\\plugins\\linux_scons.pyc'
p191
F1377167714.0
sS'c:\\marmalade\\6.3.3beta\\s3e\\makefile_builder\\plugins\\S3EEmitter.pyc'
p192
F1377167714.0
sS'c:\\marmalade\\6.3.3beta\\s3e\\makefile_builder\\plugins\\vc6_utils.pyc'
p193
F1377167714.0
sS'c:\\marmalade\\6.3.3beta\\s3e\\makefile_builder\\plugins\\XcodeEmitter.py'
p194
F1377166940.0
sS'c:\\marmalade\\6.3.3beta\\s3e\\makefile_builder\\plugins\\java.pyc'
p195
F1377167714.0
sS'c:\\marmalade\\6.3.3beta\\s3e\\makefile_builder\\mkb_launcher.exe'
p196
F1377167558.0
sS'c:\\marmalade\\6.3.3beta\\s3e\\makefile_builder\\plugins\\s3e_scons.pyc'
p197
F1377167712.0
sS'c:\\marmalade\\6.3.3beta\\s3e\\makefile_builder\\templates\\win32_vcxproj.pyc'
p198
F1377167714.0
sS'c:\\marmalade\\6.3.3beta\\s3e\\makefile_builder\\plugins\\osx_scons.pyc'
p199
F1377167714.0
sS'c:\\marmalade\\6.3.3beta\\s3e\\makefile_builder\\templates\\rvct_linker_script'
p200
F1377166940.0
sS'c:\\marmalade\\6.3.3beta\\s3e\\makefile_builder\\docs\\deployment_options.txt'
p201
F1377166940.0
sS'c:\\marmalade\\6.3.3beta\\s3e\\makefile_builder\\templates\\Info.plist'
p202
F1377166940.0
sS'c:\\marmalade\\6.3.3beta\\s3e\\makefile_builder\\docs'
p203
F1377849443.476182
sS'c:\\marmalade\\6.3.3beta\\s3e\\makefile_builder\\plugins\\MakeEmitter.pyc'
p204
F1377167712.0
sS'c:\\marmalade\\6.3.3beta\\s3e\\makefile_builder\\templates\\vc10_user.pyc'
p205
F1377167714.0
sS'c:\\marmalade\\6.3.3beta\\s3e\\makefile_builder\\templates\\scons.pyc'
p206
F1377167714.0
sS'c:\\marmalade\\6.3.3beta\\s3e\\makefile_builder\\plugins\\deploy.pyc'
p207
F1377167712.0
sS'c:\\marmalade\\6.3.3beta\\s3e\\makefile_builder\\templates\\win32_vcxproj_filters.pyc'
p208
F1377167714.0
sS'c:\\marmalade\\6.3.3beta\\s3e\\makefile_builder\\plugins\\Emitter.pyc'
p209
F1377167712.0
sS'c:\\marmalade\\6.3.3beta\\s3e\\makefile_builder\\deployment.pyc'
p210
F1377167712.0
sS'c:\\marmalade\\6.3.3beta\\s3e\\makefile_builder\\plugins\\iphone.pyc'
p211
F1377167714.0
sS'c:\\marmalade\\6.3.3beta\\s3e\\makefile_builder\\templates\\xcode4_DeployTool.xcscheme'
p212
F1377166940.0
sS'c:\\marmalade\\6.3.3beta\\s3e\\makefile_builder\\docs\\deprecated.defines.txt'
p213
F1377166940.0
sS'c:\\marmalade\\6.3.3beta\\s3e\\makefile_builder\\templates'
p214
F1377849443.381171
sS'c:\\marmalade\\6.3.3beta\\s3e\\makefile_builder\\plugins\\osx_xcode.pyc'
p215
F1377167714.0
sS'c:\\marmalade\\6.3.3beta\\s3e\\makefile_builder\\templates\\vc8_user.pyc'
p216
F1377167714.0
sS'c:\\marmalade\\6.3.3beta\\s3e\\makefile_builder\\plugins\\s3e_qmake.pyc'
p217
F1377850110.4662123
sS'c:\\marmalade\\6.3.3beta\\s3e\\makefile_builder\\templates\\xcode_pbxuser.py'
p218
F1377166940.0
sS'c:\\marmalade\\6.3.3beta\\s3e\\makefile_builder\\plugins\\win32_vc6.pyc'
p219
F1377167714.0
sS'c:\\marmalade\\6.3.3beta\\s3e\\makefile_builder\\plugins'
p220
F1377850110.6032288
sS'c:\\marmalade\\6.3.3beta\\s3e\\makefile_builder\\plugins\\VisualStudioEmitter.pyc'
p221
F1377167714.0
sS'c:\\marmalade\\6.3.3beta\\s3e\\makefile_builder\\templates\\wp8_csproj_user.pyc'
p222
F1377167714.0
sS'c:\\marmalade\\6.3.3beta\\s3e\\makefile_builder\\plugins\\s3e_make.pyc'
p223
F1377167712.0
sS'c:\\marmalade\\6.3.3beta\\s3e\\makefile_builder\\plugins\\wp8_wp8.pyc'
p224
F1377167714.0
sS'c:\\marmalade\\6.3.3beta\\s3e\\makefile_builder\\templates\\vc6_opt.pyc'
p225
F1377167714.0
sS'c:\\marmalade\\6.3.3beta\\s3e\\makefile_builder\\templates\\vc7_suo.pyc'
p226
F1377167714.0
sS'c:\\marmalade\\6.3.3beta\\s3e\\makefile_builder\\templates\\xcode4.xcscheme'
p227
F1377166940.0
sS'c:\\marmalade\\6.3.3beta\\s3e\\makefile_builder\\mkb_parser.pyc'
p228
F1377167712.0
sS'c:\\marmalade\\6.3.3beta\\s3e\\makefile_builder\\templates\\wp8_csproj.pyc'
p229
F1377167714.0
sS'c:\\marmalade\\6.3.3beta\\s3e\\makefile_builder\\templates\\template.suo'
p230
F1377166940.0
sS'c:\\marmalade\\6.3.3beta\\s3e\\makefile_builder\\templates\\make.py'
p231
F1377166940.0
sS'c:\\marmalade\\6.3.3beta\\s3e\\makefile_builder\\templates\\wp8_ext_csproj.pyc'
p232
F1377167714.0
sS'c:\\marmalade\\6.3.3beta\\s3e\\makefile_builder\\mkb_main.pyc'
p233
F1377167712.0
sS'c:\\marmalade\\6.3.3beta\\s3e\\makefile_builder\\extensions\\make_dist.py'
p234
F1377166940.0
sS'c:\\marmalade\\6.3.3beta\\s3e\\makefile_builder\\docs\\mkb.defines.txt'
p235
F1377166940.0
sS'c:\\marmalade\\6.3.3beta\\s3e\\makefile_builder\\plugins\\s3e_xcode.py'
p236
F1377166940.0
sS'c:\\marmalade\\6.3.3beta\\s3e\\makefile_builder\\plugins\\XcodeEmitter.pyc'
p237
F1377850110.4022026
sS'c:\\marmalade\\6.3.3beta\\s3e\\makefile_builder\\templates\\wp8_sln.pyc'
p238
F1377167714.0
sS'c:\\marmalade\\6.3.3beta\\s3e\\makefile_builder\\extensions'
p239
F1377849443.3901713
sS'c:\\marmalade\\6.3.3beta\\s3e\\makefile_builder\\docs\\options.txt'
p240
F1377166940.0
sS'c:\\marmalade\\6.3.3beta\\s3e\\makefile_builder\\mkb_option.pyc'
p241
F1377167712.0
sS'c:\\marmalade\\6.3.3beta\\s3e\\makefile_builder\\templates\\qmake.py'
p242
F1377166940.0
sS'c:\\marmalade\\6.3.3beta\\s3e\\makefile_builder\\templates\\win32_sln.pyc'
p243
F1377167714.0
sS'c:\\marmalade\\6.3.3beta\\s3e\\makefile_builder\\templates\\linker_script'
p244
F1377166940.0
sS'c:\\marmalade\\6.3.3beta\\s3e\\makefile_builder\\templates\\mips_linker_script'
p245
F1377166940.0
sS'c:\\marmalade\\6.3.3beta\\s3e\\makefile_builder\\plugins\\s3e_wp8.pyc'
p246
F1377167714.0
sS'c:\\marmalade\\6.3.3beta\\s3e\\makefile_builder\\plugins\\vc7_utils.pyc'
p247
F1377167714.0
sS'c:\\marmalade\\6.3.3beta\\s3e\\makefile_builder\\plugins\\s3e_xcode.pyc'
p248
F1377850110.6062274
sS'c:\\marmalade\\6.3.3beta\\s3e\\makefile_builder\\mkb.py'
p249
F1377166940.0
sS'c:\\marmalade\\6.3.3beta\\s3e\\makefile_builder\\templates\\gdb_start.txt'
p250
F1377166940.0
sS'c:\\marmalade\\6.3.3beta\\s3e\\makefile_builder\\templates\\wp8_vcxproj.pyc'
p251
F1377167714.0
sS'c:\\marmalade\\6.3.3beta\\s3e\\makefile_builder\\templates\\win32_dsp.pyc'
p252
F1377167714.0
sS'c:\\marmalade\\6.3.3beta\\s3e\\makefile_builder\\templates\\qmake_user.py'
p253
F1377166940.0
sS'c:\\marmalade\\6.3.3beta\\s3e\\makefile_builder\\docs\\deprecated.options.txt'
p254
F1377166940.0
sS'c:\\marmalade\\6.3.3beta\\s3e\\makefile_builder\\plugins\\s3e_vc6.pyc'
p255
F1377167712.0
sS'c:\\marmalade\\6.3.3beta\\s3e\\makefile_builder\\templates\\MainWindow.xib'
p256
F1377166940.0
sS'c:\\marmalade\\6.3.3beta\\s3e\\makefile_builder\\mkb_util.pyc'
p257
F1377167712.0
sS'c:\\marmalade\\6.3.3beta\\s3e\\makefile_builder\\templates\\xcode.py'
p258
F1377166940.0
sS'c:\\marmalade\\6.3.3beta\\s3e\\makefile_builder\\plugins\\SConsEmitter.pyc'
p259
F1377167714.0
sccopy_reg
_reconstructor
p260
(cmkb_main
MkbFile
p261
c__builtin__
object
p262
Ntp263
Rp264
(dp265
g5
(lp266
sS'target_name'
p267
S'game'
p268
sS'current_file'
p269
g113
sS'package_path'
p270
(lp271
VC:\u005cUsers\u005cBilal\u005cAppData\u005cRoaming\u005cMarmalade\u005cpackages\u005c6.3.3\u005csqlite_3.6.10
p272
asS'post_build'
p273
(lp274
(lp275
S'c:/marmalade/6.3.3beta/s3e/tools'
p276
aS'C:\\Marmalade\\6.3.3BETA\\s3e\\python\\python.exe .\\process_map.py "$(TargetPath)"'
p277
aa(S'c:\\marmalade\\6.3.3beta\\s3e'
p278
S'"c:\\marmalade\\6.3.3beta\\s3e\\bin\\s3e_plink" -l "$(TargetPath)" '
p279
g140
tp280
asS'librarys'
p281
(lp282
g260
(cmkb_main
Library
p283
g262
Ntp284
Rp285
(dp286
S'name'
p287
S'vc6_compat.lib'
p288
sS'expand_name'
p289
I00
sS'include_spec_rvct_objs'
p290
(lp291
sS'include_all_objs'
p292
I00
sS'share_arm'
p293
I00
sS'arch'
p294
S'x86'
p295
sS'nodebug'
p296
I00
sg36
Nsbag260
(g283
g262
Ntp297
Rp298
(dp299
g287
S'sqlite'
p300
sg289
I01
sg290
(lp301
sg292
Nsg293
Nsg294
Nsg296
I00
sg36
Nsbag260
(g283
g262
Ntp302
Rp303
(dp304
g287
S'jpeg'
p305
sg289
I01
sg290
g301
sg292
Nsg293
Nsg294
Nsg296
I00
sg36
Nsbag260
(g283
g262
Ntp306
Rp307
(dp308
g287
S'z'
p309
sg289
I01
sg290
g301
sg292
Nsg293
Nsg294
Nsg296
I00
sg36
Nsbag260
(g283
g262
Ntp310
Rp311
(dp312
g287
S'png'
p313
sg289
I01
sg290
g301
sg292
Nsg293
Nsg294
Nsg296
I00
sg36
Nsbag260
(g283
g262
Ntp314
Rp315
(dp316
g287
S'iwutil'
p317
sg289
I01
sg290
g301
sg292
Nsg293
I01
sg294
Nsg296
I00
sg36
Nsbag260
(g283
g262
Ntp318
Rp319
(dp320
g287
S'iwgeom'
p321
sg289
I01
sg290
g301
sg292
Nsg293
I01
sg294
Nsg296
I00
sg36
Nsbag260
(g283
g262
Ntp322
Rp323
(dp324
g287
S'iwresmanager'
p325
sg289
I01
sg290
g301
sg292
Nsg293
I01
sg294
Nsg296
I00
sg36
Nsbag260
(g283
g262
Ntp326
Rp327
(dp328
g287
S'ATI_Compress_MT_VC7.lib'
p329
sg289
I00
sg290
g301
sg292
Nsg293
Nsg294
S'x86'
p330
sg296
I00
sg36
Nsbag260
(g283
g262
Ntp331
Rp332
(dp333
g287
S'iwgx'
p334
sg289
I01
sg290
g301
sg292
Nsg293
I01
sg294
Nsg296
I00
sg36
Nsbag260
(g283
g262
Ntp335
Rp336
(dp337
g287
S'iwgl'
p338
sg289
I01
sg290
g301
sg292
Nsg293
Nsg294
Nsg296
I00
sg36
Nsbag260
(g283
g262
Ntp339
Rp340
(dp341
g287
S'iwgxfont'
p342
sg289
I01
sg290
g301
sg292
Nsg293
I01
sg294
Nsg296
I00
sg36
Nsbag260
(g283
g262
Ntp343
Rp344
(dp345
g287
S'tiniconv'
p346
sg289
I01
sg290
g301
sg292
Nsg293
Nsg294
Nsg296
I00
sg36
Nsbag260
(g283
g262
Ntp347
Rp348
(dp349
g287
S'iw2d'
p350
sg289
I01
sg290
g301
sg292
Nsg293
I01
sg294
Nsg296
I00
sg36
Nsbag260
(g283
g262
Ntp351
Rp352
(dp353
g287
S's3e_cpp'
p354
sg289
I01
sg290
g291
sg292
I00
sg293
I00
sg294
Nsg296
I00
sg36
Nsbag260
(g283
g262
Ntp355
Rp356
(dp357
g287
S's3e'
p358
sg289
I01
sg290
(lp359
S'iwcrt.o'
p360
asg292
I00
sg293
I00
sg294
Nsg296
I00
sg36
Nsbag260
(g283
g262
Ntp361
Rp362
(dp363
g287
S's3e_api'
p364
sg289
I01
sg290
g291
sg292
I00
sg293
I00
sg294
S'x86'
p365
sg296
I00
sg36
Nsbag260
(g283
g262
Ntp366
Rp367
(dp368
g287
S's3e_api'
p369
sg289
I01
sg290
g291
sg292
I00
sg293
I00
sg294
S'!x86'
p370
sg296
I1
sg36
Nsbag260
(g283
g262
Ntp371
Rp372
(dp373
g287
S'stdc++'
p374
sg289
I00
sg290
g291
sg292
I00
sg293
I00
sg294
S'mips'
p375
sg296
I00
sg36
Nsbag260
(g283
g262
Ntp376
Rp377
(dp378
g287
S'c'
p379
sg289
I00
sg290
g291
sg292
I00
sg293
I00
sg294
S'mips'
p380
sg296
I00
sg36
Nsbag260
(g283
g262
Ntp381
Rp382
(dp383
g287
S'm'
p384
sg289
I00
sg290
g291
sg292
I00
sg293
I00
sg294
S'mips'
p385
sg296
I00
sg36
Nsbag260
(g283
g262
Ntp386
Rp387
(dp388
g287
S'gcc'
p389
sg289
I00
sg290
g291
sg292
I00
sg293
I00
sg294
S'mips'
p390
sg296
I00
sg36
Nsbag260
(g283
g262
Ntp391
Rp392
(dp393
g287
S'stdc++'
p394
sg289
I00
sg290
g291
sg292
I00
sg293
I00
sg294
S'gcc_x86_android'
p395
sg296
I00
sg36
Nsbag260
(g283
g262
Ntp396
Rp397
(dp398
g287
g379
sg289
I00
sg290
g291
sg292
I00
sg293
I00
sg294
S'gcc_x86_android'
p399
sg296
I00
sg36
Nsbag260
(g283
g262
Ntp400
Rp401
(dp402
g287
g384
sg289
I00
sg290
g291
sg292
I00
sg293
I00
sg294
S'gcc_x86_android'
p403
sg296
I00
sg36
Nsbag260
(g283
g262
Ntp404
Rp405
(dp406
g287
S'gcc'
p407
sg289
I00
sg290
g291
sg292
I00
sg293
I00
sg294
S'gcc_x86_android'
p408
sg296
I00
sg36
NsbasS'library_paths'
p409
(lp410
g260
(cmkb_main
LibraryPath
p411
g262
Ntp412
Rp413
(dp414
S'expand_path'
p415
I01
sS'add_cpu_variant'
p416
I01
sg287
Vc:/users/bilal/appdata/roaming/marmalade/packages/6.3.3/sqlite_3.6.10
p417
sbag260
(g411
g262
Ntp418
Rp419
(dp420
g415
I01
sg416
I01
sg287
S'c:/marmalade/6.3.3beta/modules/third_party/libjpeg'
p421
sbag260
(g411
g262
Ntp422
Rp423
(dp424
g415
I01
sg416
I01
sg287
S'c:/marmalade/6.3.3beta/modules/third_party/zlib'
p425
sbag260
(g411
g262
Ntp426
Rp427
(dp428
g415
I01
sg416
I01
sg287
S'c:/marmalade/6.3.3beta/modules/third_party/libpng'
p429
sbag260
(g411
g262
Ntp430
Rp431
(dp432
g415
I01
sg416
I01
sg287
S'c:/marmalade/6.3.3beta/modules/iwutil'
p433
sbag260
(g411
g262
Ntp434
Rp435
(dp436
g415
I01
sg416
I01
sg287
S'c:/marmalade/6.3.3beta/modules/iwgeom'
p437
sbag260
(g411
g262
Ntp438
Rp439
(dp440
g415
I01
sg416
I01
sg287
S'c:/marmalade/6.3.3beta/modules/iwresmanager'
p441
sbag260
(g411
g262
Ntp442
Rp443
(dp444
g415
I00
sg416
I01
sg287
S'c:/marmalade/6.3.3beta/modules/iwgx/atitools'
p445
sbag260
(g411
g262
Ntp446
Rp447
(dp448
g415
I01
sg416
I01
sg287
S'c:/marmalade/6.3.3beta/modules/iwgx'
p449
sbag260
(g411
g262
Ntp450
Rp451
(dp452
g415
I01
sg416
I01
sg287
S'c:/marmalade/6.3.3beta/modules/iwgl'
p453
sbag260
(g411
g262
Ntp454
Rp455
(dp456
g415
I01
sg416
I01
sg287
S'c:/marmalade/6.3.3beta/modules/iwgxfont'
p457
sbag260
(g411
g262
Ntp458
Rp459
(dp460
g415
I01
sg416
I01
sg287
S'c:/marmalade/6.3.3beta/modules/third_party/tiniconv'
p461
sbag260
(g411
g262
Ntp462
Rp463
(dp464
g415
I01
sg416
I01
sg287
S'c:/marmalade/6.3.3beta/modules/iw2d'
p465
sbag260
(g411
g262
Ntp466
Rp467
(dp468
g415
I01
sg416
I00
sg287
Vc:/users/bilal/appdata/roaming/marmalade/packages/6.3.3/sqlite_3.6.10
p469
sbag260
(g411
g262
Ntp470
Rp471
(dp472
g415
I01
sg416
I00
sg287
S'c:/marmalade/6.3.3beta/modules/third_party/libjpeg'
p473
sbag260
(g411
g262
Ntp474
Rp475
(dp476
g415
I01
sg416
I00
sg287
S'c:/marmalade/6.3.3beta/modules/third_party/zlib'
p477
sbag260
(g411
g262
Ntp478
Rp479
(dp480
g415
I01
sg416
I00
sg287
S'c:/marmalade/6.3.3beta/modules/third_party/libpng'
p481
sbag260
(g411
g262
Ntp482
Rp483
(dp484
g415
I01
sg416
I00
sg287
S'c:/marmalade/6.3.3beta/modules/iwutil'
p485
sbag260
(g411
g262
Ntp486
Rp487
(dp488
g415
I01
sg416
I00
sg287
S'c:/marmalade/6.3.3beta/modules/iwgeom'
p489
sbag260
(g411
g262
Ntp490
Rp491
(dp492
g415
I01
sg416
I00
sg287
S'c:/marmalade/6.3.3beta/modules/iwresmanager'
p493
sbag260
(g411
g262
Ntp494
Rp495
(dp496
g415
I00
sg416
I00
sg287
S'c:/marmalade/6.3.3beta/modules/iwgx/atitools'
p497
sbag260
(g411
g262
Ntp498
Rp499
(dp500
g415
I01
sg416
I00
sg287
S'c:/marmalade/6.3.3beta/modules/iwgx'
p501
sbag260
(g411
g262
Ntp502
Rp503
(dp504
g415
I01
sg416
I00
sg287
S'c:/marmalade/6.3.3beta/modules/iwgl'
p505
sbag260
(g411
g262
Ntp506
Rp507
(dp508
g415
I01
sg416
I00
sg287
S'c:/marmalade/6.3.3beta/modules/iwgxfont'
p509
sbag260
(g411
g262
Ntp510
Rp511
(dp512
g415
I01
sg416
I00
sg287
S'c:/marmalade/6.3.3beta/modules/third_party/tiniconv'
p513
sbag260
(g411
g262
Ntp514
Rp515
(dp516
g415
I01
sg416
I00
sg287
S'c:/marmalade/6.3.3beta/modules/iw2d'
p517
sbag260
(g411
g262
Ntp518
Rp519
(dp520
g415
I01
sg416
I00
sg287
S'c:/marmalade/6.3.3beta/s3e'
p521
sbasS'macros'
p522
(dp523
S'IW_USE_CALLSTACK'
p524
NsS'IW_SDK'
p525
NsS'I3D_PLATFORM_S3E'
p526
NsS'IW_TRACE_CHANNEL_MESSAGEBOX'
p527
S'1'
p528
sS'IW_ASSERTION_CHANNEL_2D'
p529
g528
sS'IW_MKF_LIBJPEG'
p530
NsS'I3D_OS_S3E'
p531
NsS'IW_MKF_TINICONV'
p532
NsS'IW_APP_VERSION'
p533
S'"1.0"'
p534
sS'IW_MKF_IWRESMANAGER'
p535
NsS'IW_MKF_SQLITE'
p536
NsS'IW_MKF_IWUTIL'
p537
NsS'IW_MKF_IWGEOM'
p538
NsS'IW_ASSERTION_CHANNEL_MESSAGEBOX'
p539
g528
sS'IW_APP_NAME'
p540
S'"game"'
p541
sS'IW_MKF_IWGXFONT'
p542
NsS'IW_PLATFORM_S3E'
p543
NsS'IW_MKF_ZLIB'
p544
NsS'IW_MKF_IWGX'
p545
NsS'IW_MKF_SOUNDENGINE'
p546
NsS'IW_USE_ASSERTIONS'
p547
NsS'_CRT_SECURE_NO_DEPRECATE'
p548
NsS'IW_MKF_IWGL'
p549
NsS'IW_MKF_LIBPNG'
p550
NsS'IW_MKF_MESSAGEBOX'
p551
NsS'IW_MKF_SPINE'
p552
NsS'IW_DEBUG'
p553
NsS'IW_USE_TRACING'
p554
NsS'IW_TRACE_CHANNEL_MESSAGEBOX_VERBOSE'
p555
S'2'
p556
sS'S3E_INCLUDE_LEGACY'
p557
NsS'__S3E__'
p558
NsS'IW_MKF_IW2D'
p559
NsS'SQLITE_OMIT_LOAD_EXTENSION'
p560
NssS'done_warnings'
p561
(dp562
sS'subprojects'
p563
(dp564
g158
S'Iw2D'
p565
sg162
S'libjpeg'
p566
sg163
S'libpng'
p567
sg159
S'iwgx'
p568
sg167
S'iwgxfont'
p569
sg161
S'iwutil'
p570
sg164
S'zlib'
p571
sg165
S'iwresmanager'
p572
sg170
S'MessageBox'
p573
sg160
S'iwgeom'
p574
sVc:\u005cusers\u005cbilal\u005cappdata\u005croaming\u005cmarmalade\u005cpackages\u005c6.3.3\u005csqlite_3.6.10\u005csqlite.mkf
p575
S'sqlite'
p576
sg166
S'iwgl'
p577
sg169
S'SoundEngine'
p578
sg168
S'tiniconv'
p579
sg171
S'spine'
p580
ssS'deployments'
p581
(dp582
S'Default'
p583
g260
(cdeployment
Deployment
p584
g262
Ntp585
Rp586
(dp587
S'got_version'
p588
I1
sS'assets'
p589
g583
sS'mkb'
p590
g264
sS'target'
p591
Nsg294
(lp592
sS'options'
p593
(dp594
S'iphone-link-lib'
p595
(lp596
sS'game-icf'
p597
NsS'symbian-run-on-install'
p598
NsS'iphone-icon-high-res'
p599
NsS'wp8-ext-managed-dll'
p600
(lp601
sS'win32-pref-windowposy'
p602
NsS'win32-pref-windowposx'
p603
NsS'bada-appsecret'
p604
NsS'roku-requires-audiometadata'
p605
NsS'playbook-author'
p606
NsS'winmobile-icon32'
p607
NsS'linux-ext-lib'
p608
(lp609
sS'target-folder'
p610
NsS'iphone-splashscreen-landscape'
p611
NsS'wp8-exclude-720p'
p612
NsS'psp-discversion'
p613
NsS'lgtv-use-drm'
p614
NsS'nds-bannertitle-sp'
p615
NsS'symbian-platsecflags'
p616
NsS'psp-producer'
p617
NsS'blackberry-playbook-icon'
p618
NsS'iphone-icon-ipad-search-high-res'
p619
NsS'iphone-provisioning-profile'
p620
NsS'copyright'
p621
NsS'android-extra-application-manifest'
p622
(lp623
sS'winmobile-png45'
p624
NsS'iphone-link-libdir'
p625
(lp626
sS'symbian-cert'
p627
NsS'nds-bannertitle-hn'
p628
NsS'brew-depends'
p629
NsS'wp8-author'
p630
NsS'winmobile-nouninstall'
p631
NsS'android-icon-hdpi'
p632
NsS'iphone-ipad-only'
p633
NsS'iphone-splash-full-orient'
p634
NsS'wp8-tile-fliptemplate-supports-large'
p635
NsS'iphone-bundle-url-name'
p636
NsS'iphone-show-status-bar'
p637
NsS'wp8-tile-fliptemplate-large-front-image'
p638
NsS'android-aliasname'
p639
NsS'iphone-splash-retina-generate'
p640
NsS'symbian-icon2-mask'
p641
NsS'iphone-backgroundmode-audio'
p642
NsS'android-pkgname'
p643
NsS'webos-memory'
p644
NsS'brew-uid'
p645
NsS'android-keypass'
p646
NsS'symbian-locationsupport'
p647
NsS'wp8-tile-fliptemplate-large-back-content'
p648
NsS'iphone-signing-host'
p649
NsS'nds-bannertitle-jp'
p650
NsS'name'
p651
NsS'iphone-link-libdirs'
p652
(lp653
S'c:/marmalade/6.3.3beta/extensions/messagebox/lib/iphone'
p654
asS'osx-info-plist'
p655
NsS'symbian-icon1-format'
p656
NsS'uiq3-uid'
p657
NsS'psp-dlgcontentid'
p658
NsS'roku-splash-screen-sd'
p659
NsS'auto-derbh'
p660
NsS'bada-use-partner-privileges'
p661
NsS'nds-bannertitle-it'
p662
NsS'roku-icon-side-sd'
p663
NsS'blackberry-authorid'
p664
NsS'nds-publicsavedatasize'
p665
NsS'splashscreen'
p666
NsS'brew-mif'
p667
NsS'symbian-icon2-format'
p668
NsS'long-caption'
p669
NsS'iphone-icon-settings-high-res'
p670
NsS'uiq3-icon1-mask'
p671
NsS'iphone-development-cert'
p672
NsS'winmobile-icon16'
p673
NsS's3e-compression'
p674
NsS'wp8-description'
p675
NsS'iphone-link-opts'
p676
(lp677
S'-weak_framework CoreText -weak_framework UIKit -weak_framework Security -weak_framework AddressBook -weak_framework AddressBookUI -weak_framework MapKit -lsqlite3.0'
p678
asS'wp8-tile-fliptemplate-back-content'
p679
NsS'iphone-region'
p680
NsS'uiq3-icon3-mask'
p681
NsS'winmobile-start-menu-folder'
p682
NsS'roku-splash-min-time'
p683
NsS'brew-encoding'
p684
NsS'roku-requires-bluetooth'
p685
NsS'symbian-icon1'
p686
NsS'symbian-icon2'
p687
NsS'psp-parentallevel'
p688
NsS'wp8-tile-fliptemplate-medium-front-image'
p689
NsS'wp8-tile-fliptemplate-large-back-image'
p690
NsS'version'
p691
(lp692
I1
aI0
aI0
asS'caption'
p693
NsS'bada-manifest'
p694
NsS'provider'
p695
NsS'iphone-prerendered-icon'
p696
NsS'iphone-appid'
p697
NsS'playbook-keystore'
p698
NsS'nds-initialcode'
p699
NsS'priv-sign-key'
p700
NsS'android-external-jars'
p701
(lp702
S'c:/marmalade/6.3.3beta/extensions/messagebox/lib/android/MessageBox.jar'
p703
asS'blackberry-cskpass'
p704
NsS'iphone-persistent-wifi'
p705
NsS'symbian7-uid'
p706
NsS'winmobile-setup-dll'
p707
NsS'wp8-exclude-wvga'
p708
NsS'symbian-osexecsupport'
p709
NsS'android-install-location'
p710
NsS'olddeploytoolstyle'
p711
NsS'nds-privatesavedatasize'
p712
NsS'symbian9-uid'
p713
NsS'nds-bannertitle-cn'
p714
NsS'winmobile-trace-file'
p715
NsS'roku-splash-color'
p716
NsS'roku-icon-focus-hd'
p717
NsS'android-icon-ldpi'
p718
NsS'iphone-distribution-key'
p719
NsS'networking'
p720
NsS'winmobile-install-folder'
p721
NsS'android-external-res'
p722
(lp723
sS'winmobile-ampd-part-number'
p724
NsS'android-icon-gallery'
p725
NsS'bada-signed'
p726
NsS'android-supports-gl-texture'
p727
(lp728
sS'iphone-apple-wwdr-cert'
p729
NsS'psp-snd0'
p730
NsS'iphone-extra-sections'
p731
NsS'blackberry-keystore'
p732
NsS'iphone-nosign'
p733
NsS'brew-priviledges'
p734
NsS'psp-icon1'
p735
NsS'iphone-icon-large'
p736
NsS'android-storepass'
p737
NsS'playbook-storepass'
p738
NsS'iphone-info-plist'
p739
NsS'wp8-product-id'
p740
NsS'android-extra-manifest'
p741
(lp742
sS'wp8-ext-native-dll'
p743
(lp744
sS'wp8-exclude-low-mem'
p745
NsS'android-custom-activity'
p746
NsS'version-minor'
p747
NsS'iphone-icon-ipad'
p748
NsS'bada-appid'
p749
NsS'psp-appversion'
p750
NsS'roku-hidden'
p751
NsS'psp-copyright'
p752
NsS'symbian-maxheapsize'
p753
NsS'embed-icf'
p754
NsS'psp-titlename'
p755
NsS'symbian-icon1-mask'
p756
NsS'nds-makercode'
p757
NsS'symbian8-uid'
p758
NsS'webos-appinfo'
p759
NsS'symbian-cert-key'
p760
NsS'android-icon'
p761
NsS'webos-appid'
p762
NsS'android-icon-nonstandard'
p763
NsS'roku-icon-side-hd'
p764
NsS'iphone-icon-settings'
p765
NsS'wp8-tile-fliptemplate-medium-back-image'
p766
NsS'iphone-distribution-cert'
p767
NsS'osx-icon'
p768
NsS'nds-titlename'
p769
NsS'splashscreen-auto-onblack'
p770
NsS'manufacturer'
p771
NsS'nds-romheadertemplate'
p772
NsS'webos-icon'
p773
NsS'nds-bannertitle-en'
p774
NsS'win32-ext-dll'
p775
(lp776
S'c:/marmalade/6.3.3beta/extensions/messagebox/lib/win32/MessageBox.dll'
p777
asS'psp-dlgicon0'
p778
NsS'iphone-development-key'
p779
NsS'psp-discid'
p780
NsS'winmobile-icon48'
p781
NsS'android-manifest'
p782
NsS'playbook-cskpass'
p783
NsS'android-so'
p784
(lp785
S'c:/marmalade/6.3.3beta/extensions/messagebox/lib/android/libMessageBox.so'
p786
asS'wp8-higher-mem'
p787
NsS'bada-splash'
p788
NsS'version-revision'
p789
NsS'roku-icon-focus-sd'
p790
NsS'android-icon-mdpi'
p791
NsS'android-keystore'
p792
NsS'osx-ext-dll'
p793
(lp794
S'c:/marmalade/6.3.3beta/extensions/messagebox/lib/osx/libMessageBox.dylib'
p795
asS'version-string'
p796
NsS'winmobile-png90'
p797
NsS'roku-splash-screen-hd'
p798
NsS'iphone-icon-ipad-high-res'
p799
NsS'iphone-disable-ipad'
p800
NsS'uiq3-icon1-format'
p801
NsS'iphone-bundle-url-schemes'
p802
NsS'nds-icon'
p803
NsS'roku-screensaver-private'
p804
NsS'wp8-tile-fliptemplate-small-image'
p805
NsS'winmobile-png60'
p806
NsS'playbook-authorid'
p807
NsS'android_extra_strings'
p808
NsS'playbook-icon'
p809
NsS'uid'
p810
NsS'icon'
p811
NsS'iphone-signing-identity'
p812
NsS'brew-icon-medium'
p813
NsS'roku-persist-quota'
p814
NsS'wp8-ext-capabilities'
p815
(lp816
sS'symbian-icon2-mask-black'
p817
NsS'winmobile-icon64'
p818
NsS'blackberry-phone-icon'
p819
NsS'iphone-enable-4inch-retina'
p820
NsS'pkguid-as-uid'
p821
NsS'symbian-icon1-mask-black'
p822
NsS'uiq3-icon2'
p823
NsS'uiq3-icon2-format'
p824
NsS'pub-sign-key'
p825
NsS'nds-bannertitle-fr'
p826
NsS'win32-pref-windowtitle'
p827
NsS'symbian-disable-ecompxl'
p828
NsS'psp-dlgprotectdocument'
p829
NsS'symbian-soundrecordsupport'
p830
NsS'splashscreen-use-all'
p831
NsS'roku-screensaver-title'
p832
NsS'brew-clsid'
p833
NsS'wp8-genre-isgame'
p834
NsS'brew-icon-small'
p835
NsS'psp-dlgpic2'
p836
NsS'bada-icon'
p837
NsS'psp-dlgpic0'
p838
NsS'psp-pic0'
p839
NsS'psp-pic1'
p840
NsS'iphone-icon'
p841
NsS'psp-icon0'
p842
NsS'blackberry-permissions-access-shared'
p843
NsS'uiq3-icon3-format'
p844
NsS'version-major'
p845
NsS'iphone_bundle_localisations'
p846
NsS'winmobile-icon'
p847
NsS'roku-requires-mkv'
p848
NsS'blackberry-author'
p849
NsS'symbian-keypwd'
p850
NsS'iphone-no-splash'
p851
NsS'playbook-access-shared'
p852
NsS'psp-dlghealthwarning'
p853
NsS'iphone-link-libs'
p854
(lp855
S'MessageBox'
p856
asS'wp8-custom-manifest'
p857
NsS'iphone-splash'
p858
NsS'nds-bannertitle-ge'
p859
NsS'android_icon_gallery'
p860
NsS'brew-icon-large'
p861
NsS'iphone-app-fonts'
p862
NsS'psp-dlgmanual'
p863
NsS'iphone-sign-for-distribution'
p864
NsS'android-unsigned'
p865
NsS'arch'
p866
NsS'uiq3-icon3'
p867
NsS'wp8-publisher-id'
p868
NsS'uiq3-icon1'
p869
NsS'itunes-artwork'
p870
NsS'android-x86'
p871
NsS'win32-icon'
p872
NsS'assets'
p873
NsS'symbian-key'
p874
NsS'app-icf'
p875
NsS'blackberry-storepass'
p876
NsS'winmobile-cab-compress'
p877
NsS'wp8-tile-fliptemplate-back-title'
p878
NsS'wp8-custom-manifest-fill'
p879
NsS'wp8-exclude-wxga'
p880
NsS'brew-compress-loader'
p881
NsS'wp8-tile-fliptemplate-title'
p882
NsS'uiq3-icon2-mask'
p883
NsS'iphone-icon-ipad-search'
p884
NsS'symbian-icon-svg'
p885
NsS'android-extra-strings'
p886
NsS'iphone-splashscreen-portrait'
p887
NsS'iphone-bundle-localisations'
p888
Nssg287
g583
sbssS'platform'
p889
S'S3E'
p890
sg61
S'1.0'
p891
sS'arcade_platform'
p892
g4
sS'extensions'
p893
(dp894
sS'source_groups_tree'
p895
(dp896
S'(spine)'
p897
(dp898
S'spine'
p899
(dp900
S'c:/users/bilal/repositories/gamejam2/includes/spine/SkeletonData.h'
p901
(lp902
I1
a(dp903
asS'c:/users/bilal/repositories/gamejam2/source/spine/BaseSkeletonJson.cpp'
p904
(lp905
I1
ag903
asS'c:/users/bilal/repositories/gamejam2/source/spine/Skin.cpp'
p906
(lp907
I1
ag903
asS'c:/users/bilal/repositories/gamejam2/source/spine/BaseRegionAttachment.cpp'
p908
(lp909
I1
ag903
asS'c:/users/bilal/repositories/gamejam2/source/spine/BaseSkeleton.cpp'
p910
(lp911
I1
ag903
asS'c:/users/bilal/repositories/gamejam2/source/spine/Bone.cpp'
p912
(lp913
I1
ag903
asS'c:/users/bilal/repositories/gamejam2/source/spine/Animation.cpp'
p914
(lp915
I1
ag903
asS'c:/users/bilal/repositories/gamejam2/includes/spine/Skin.h'
p916
(lp917
I1
ag903
asS'c:/users/bilal/repositories/gamejam2/includes/spine/BaseSkeletonJson.h'
p918
(lp919
I1
ag903
asS'c:/users/bilal/repositories/gamejam2/includes/spine/BoneData.h'
p920
(lp921
I1
ag903
asS'c:/users/bilal/repositories/gamejam2/includes/spine/BaseRegionAttachment.h'
p922
(lp923
I1
ag903
asS'c:/users/bilal/repositories/gamejam2/source/spine/BaseAtlas.cpp'
p924
(lp925
I1
ag903
asS'c:/users/bilal/repositories/gamejam2/includes/spine/Animation.h'
p926
(lp927
I1
ag903
asS'c:/users/bilal/repositories/gamejam2/includes/spine/BaseSkeleton.h'
p928
(lp929
I1
ag903
asS'c:/users/bilal/repositories/gamejam2/includes/spine/Attachment.h'
p930
(lp931
I1
ag903
asS'c:/users/bilal/repositories/gamejam2/includes/spine/SlotData.h'
p932
(lp933
I1
ag903
asS'c:/users/bilal/repositories/gamejam2/includes/spine/BaseAtlas.h'
p934
(lp935
I1
ag903
asS'c:/users/bilal/repositories/gamejam2/source/spine/SkeletonData.cpp'
p936
(lp937
I1
ag903
asS'c:/users/bilal/repositories/gamejam2/includes/spine/BaseAttachmentLoader.h'
p938
(lp939
I1
ag903
asS'c:/users/bilal/repositories/gamejam2/includes/spine/Bone.h'
p940
(lp941
I1
ag903
asS'c:/users/bilal/repositories/gamejam2/source/spine/Slot.cpp'
p942
(lp943
I1
ag903
asS'c:/users/bilal/repositories/gamejam2/includes/spine/Slot.h'
p944
(lp945
I1
ag903
assS'c:/users/bilal/repositories/gamejam2/spine.mkf'
p946
(lp947
I1
a(dp948
asS'json'
p949
(dp950
S'c:/users/bilal/repositories/gamejam2/includes/json/json.h'
p951
(lp952
I1
ag903
asS'c:/users/bilal/repositories/gamejam2/includes/json/reader.h'
p953
(lp954
I1
ag903
asS'c:/users/bilal/repositories/gamejam2/includes/json/config.h'
p955
(lp956
I1
ag903
asS'c:/users/bilal/repositories/gamejam2/source/json/json_internalmap.inl'
p957
(lp958
I1
ag903
asS'c:/users/bilal/repositories/gamejam2/includes/json/autolink.h'
p959
(lp960
I1
ag903
asS'c:/users/bilal/repositories/gamejam2/source/json/json_reader.cpp'
p961
(lp962
I1
ag903
asS'c:/users/bilal/repositories/gamejam2/includes/json/writer.h'
p963
(lp964
I1
ag903
asS'c:/users/bilal/repositories/gamejam2/source/json/json_writer.cpp'
p965
(lp966
I1
ag903
asS'c:/users/bilal/repositories/gamejam2/includes/json/features.h'
p967
(lp968
I1
ag903
asS'c:/users/bilal/repositories/gamejam2/includes/json/forwards.h'
p969
(lp970
I1
ag903
asS'c:/users/bilal/repositories/gamejam2/source/json/json_valueiterator.inl'
p971
(lp972
I1
ag903
asS'c:/users/bilal/repositories/gamejam2/includes/json/value.h'
p973
(lp974
I1
ag903
asS'c:/users/bilal/repositories/gamejam2/source/json/json_internalarray.inl'
p975
(lp976
I1
ag903
asS'c:/users/bilal/repositories/gamejam2/source/json/json_value.cpp'
p977
(lp978
I1
ag903
asS'c:/users/bilal/repositories/gamejam2/source/json/json_batchallocator.h'
p979
(lp980
I1
ag903
assS'Marmalade'
p981
(dp982
S'c:/users/bilal/repositories/gamejam2/source/spine-marm/Skeleton.cpp'
p983
(lp984
I1
ag903
asS'c:/users/bilal/repositories/gamejam2/source/spine-marm/SkeletonJson.cpp'
p985
(lp986
I1
ag903
asS'c:/users/bilal/repositories/gamejam2/includes/spine-marm/spine.h'
p987
(lp988
I1
ag903
asS'c:/users/bilal/repositories/gamejam2/includes/spine-marm/RegionAttachment.h'
p989
(lp990
I1
ag903
asS'c:/users/bilal/repositories/gamejam2/source/spine-marm/Atlas.cpp'
p991
(lp992
I1
ag903
asS'c:/users/bilal/repositories/gamejam2/includes/spine-marm/AtlasAttachmentLoader.h'
p993
(lp994
I1
ag903
asS'c:/users/bilal/repositories/gamejam2/source/spine-marm/AtlasAttachmentLoader.cpp'
p995
(lp996
I1
ag903
asS'c:/users/bilal/repositories/gamejam2/includes/spine-marm/Skeleton.h'
p997
(lp998
I1
ag903
asS'c:/users/bilal/repositories/gamejam2/source/spine-marm/RegionAttachment.cpp'
p999
(lp1000
I1
ag903
asS'c:/users/bilal/repositories/gamejam2/includes/spine-marm/SkeletonJson.h'
p1001
(lp1002
I1
ag903
asS'c:/users/bilal/repositories/gamejam2/includes/spine-marm/Atlas.h'
p1003
(lp1004
I1
ag903
asssS'(libpng)'
p1005
(dp1006
S'h'
p1007
(dp1008
S'c:/marmalade/6.3.3beta/modules/third_party/libpng/h/png.h'
p1009
(lp1010
I1
a(dp1011
asS'c:/marmalade/6.3.3beta/modules/third_party/libpng/h/pngconf.h'
p1012
(lp1013
I1
ag1011
assS'c:/marmalade/6.3.3beta/modules/third_party/libpng/libpng.mkf'
p1014
(lp1015
I1
a(dp1016
assS'(libjpeg)'
p1017
(dp1018
g1007
(dp1019
S'c:/marmalade/6.3.3beta/modules/third_party/libjpeg/h/jmemsys.h'
p1020
(lp1021
I1
a(dp1022
asS'c:/marmalade/6.3.3beta/modules/third_party/libjpeg/h/jpegint.h'
p1023
(lp1024
I1
ag1022
asS'c:/marmalade/6.3.3beta/modules/third_party/libjpeg/h/jpeglib.h'
p1025
(lp1026
I1
ag1022
asS'c:/marmalade/6.3.3beta/modules/third_party/libjpeg/h/jconfig.h'
p1027
(lp1028
I1
ag1022
asS'c:/marmalade/6.3.3beta/modules/third_party/libjpeg/h/jversion.h'
p1029
(lp1030
I1
ag1022
asS'c:/marmalade/6.3.3beta/modules/third_party/libjpeg/h/cdjpeg.h'
p1031
(lp1032
I1
ag1022
asS'c:/marmalade/6.3.3beta/modules/third_party/libjpeg/h/jdct.h'
p1033
(lp1034
I1
ag1022
asS'c:/marmalade/6.3.3beta/modules/third_party/libjpeg/h/jchuff.h'
p1035
(lp1036
I1
ag1022
asS'c:/marmalade/6.3.3beta/modules/third_party/libjpeg/h/jerror.h'
p1037
(lp1038
I1
ag1022
asS'c:/marmalade/6.3.3beta/modules/third_party/libjpeg/h/jmorecfg.h'
p1039
(lp1040
I1
ag1022
asS'c:/marmalade/6.3.3beta/modules/third_party/libjpeg/h/transupp.h'
p1041
(lp1042
I1
ag1022
asS'c:/marmalade/6.3.3beta/modules/third_party/libjpeg/h/jinclude.h'
p1043
(lp1044
I1
ag1022
asS'c:/marmalade/6.3.3beta/modules/third_party/libjpeg/h/jdhuff.h'
p1045
(lp1046
I1
ag1022
asS'c:/marmalade/6.3.3beta/modules/third_party/libjpeg/h/cderror.h'
p1047
(lp1048
I1
ag1022
assS'c:/marmalade/6.3.3beta/modules/third_party/libjpeg/libjpeg.mkf'
p1049
(lp1050
I1
a(dp1051
assS'(tiniconv)'
p1052
(dp1053
S'c:/marmalade/6.3.3beta/modules/third_party/tiniconv/source/tiniconv_int.h'
p1054
(lp1055
I1
a(dp1056
asS'c:/marmalade/6.3.3beta/modules/third_party/tiniconv/tiniconv.mkf'
p1057
(lp1058
I1
a(dp1059
asS'c:/marmalade/6.3.3beta/modules/third_party/tiniconv/source/tiniconv.h'
p1060
(lp1061
I1
ag1056
assS'Interfaces'
p1062
(dp1063
S'c:/Users/Bilal/Repositories/GameJam2/source/interfaces/game.h'
p1064
(lp1065
I1
a(dp1066
asS'c:/Users/Bilal/Repositories/GameJam2/source/interfaces/view.h'
p1067
(lp1068
I1
ag1066
asS'c:/Users/Bilal/Repositories/GameJam2/source/interfaces/structures.h'
p1069
(lp1070
I1
ag1066
asS'c:/Users/Bilal/Repositories/GameJam2/source/interfaces/game.cpp'
p1071
(lp1072
I1
ag1066
assS'(SoundEngine)'
p1073
(dp1074
S'c:/marmalade/6.3.3beta/examples/soundengine/h/IwResHandlerWAV.h'
p1075
(lp1076
I1
a(dp1077
asS'c:/marmalade/6.3.3beta/examples/soundengine/h/IwSoundManager.h'
p1078
(lp1079
I1
ag1077
asS'c:/marmalade/6.3.3beta/examples/soundengine/source/IwSoundADPCM.cpp'
p1080
(lp1081
I1
ag1077
asS'c:/marmalade/6.3.3beta/examples/soundengine/source/IwSoundSpec.cpp'
p1082
(lp1083
I1
ag1077
asS'Docs'
p1084
(dp1085
S'c:/marmalade/6.3.3beta/examples/soundengine/docs/iwsound.config.txt'
p1086
(lp1087
I1
ag1077
assS'c:/marmalade/6.3.3beta/examples/soundengine/h/IwSoundPCM.h'
p1088
(lp1089
I1
ag1077
asS'c:/marmalade/6.3.3beta/examples/soundengine/source/IwSoundPCM.cpp'
p1090
(lp1091
I1
ag1077
asS'c:/marmalade/6.3.3beta/examples/soundengine/h/IwSoundADPCM.h'
p1092
(lp1093
I1
ag1077
asS'c:/marmalade/6.3.3beta/examples/soundengine/source/IwSoundParams.cpp'
p1094
(lp1095
I1
ag1077
asS'c:/marmalade/6.3.3beta/examples/soundengine/source/IwSoundData.cpp'
p1096
(lp1097
I1
ag1077
asS'c:/marmalade/6.3.3beta/examples/soundengine/h/IwSoundInst.h'
p1098
(lp1099
I1
ag1077
asS'c:/marmalade/6.3.3beta/examples/soundengine/h/IwSoundSpec.h'
p1100
(lp1101
I1
ag1077
asS'c:/marmalade/6.3.3beta/examples/soundengine/source/IwResHandlerWAV.cpp'
p1102
(lp1103
I1
ag1077
asS'c:/marmalade/6.3.3beta/examples/soundengine/h/IwSoundGroup.h'
p1104
(lp1105
I1
ag1077
asS'c:/marmalade/6.3.3beta/examples/soundengine/soundengine.mkf'
p1106
(lp1107
I1
a(dp1108
asS'c:/marmalade/6.3.3beta/examples/soundengine/h/IwSoundData.h'
p1109
(lp1110
I1
ag1077
asS'c:/marmalade/6.3.3beta/examples/soundengine/source/IwSoundGroup.cpp'
p1111
(lp1112
I1
ag1077
asS'c:/marmalade/6.3.3beta/examples/soundengine/source/IwSoundManager.cpp'
p1113
(lp1114
I1
ag1077
asS'c:/marmalade/6.3.3beta/examples/soundengine/h/IwSound.h'
p1115
(lp1116
I1
ag1077
asS'c:/marmalade/6.3.3beta/examples/soundengine/source/IwSoundInst.cpp'
p1117
(lp1118
I1
ag1077
asS'c:/marmalade/6.3.3beta/examples/soundengine/h/IwSoundParams.h'
p1119
(lp1120
I1
ag1077
assS'Util'
p1121
(dp1122
S'c:/Users/Bilal/Repositories/GameJam2/source/util/dynamicArray.h'
p1123
(lp1124
I1
ag1066
assS'Source'
p1125
(dp1126
S'c:/Users/Bilal/Repositories/GameJam2/source/my_game.h'
p1127
(lp1128
I1
ag1066
asS'c:/Users/Bilal/Repositories/GameJam2/source/menu.h'
p1129
(lp1130
I1
ag1066
asS'c:/Users/Bilal/Repositories/GameJam2/source/Iw2DSprite.h'
p1131
(lp1132
I1
ag1066
asS'c:/Users/Bilal/Repositories/GameJam2/source/scrolling_background.h'
p1133
(lp1134
I1
ag1066
asS'c:/Users/Bilal/Repositories/GameJam2/source/my_game.cpp'
p1135
(lp1136
I1
ag1066
asS'c:/Users/Bilal/Repositories/GameJam2/source/arcade.h'
p1137
(lp1138
I1
ag1066
asS'c:/Users/Bilal/Repositories/GameJam2/source/arcade.cpp'
p1139
(lp1140
I1
ag1066
asS'c:/Users/Bilal/Repositories/GameJam2/source/scrolling_background.cpp'
p1141
(lp1142
I1
ag1066
asS'c:/Users/Bilal/Repositories/GameJam2/source/player_car.cpp'
p1143
(lp1144
I1
ag1066
asS'c:/Users/Bilal/Repositories/GameJam2/source/menu.cpp'
p1145
(lp1146
I1
ag1066
asS'c:/Users/Bilal/Repositories/GameJam2/source/main.cpp'
p1147
(lp1148
I1
ag1066
asS'c:/Users/Bilal/Repositories/GameJam2/source/observer.h'
p1149
(lp1150
I1
ag1066
asS'c:/Users/Bilal/Repositories/GameJam2/source/opponent_car.cpp'
p1151
(lp1152
I1
ag1066
asS'c:/Users/Bilal/Repositories/GameJam2/source/level_generator.h'
p1153
(lp1154
I1
ag1066
asS'c:/Users/Bilal/Repositories/GameJam2/source/level_generator.cpp'
p1155
(lp1156
I1
ag1066
asS'c:/Users/Bilal/Repositories/GameJam2/source/observer.cpp'
p1157
(lp1158
I1
ag1066
asS'c:/Users/Bilal/Repositories/GameJam2/source/opponent_car.h'
p1159
(lp1160
I1
ag1066
asS'c:/Users/Bilal/Repositories/GameJam2/source/Iw2DSprite.cpp'
p1161
(lp1162
I1
ag1066
asS'c:/Users/Bilal/Repositories/GameJam2/source/player_car.h'
p1163
(lp1164
I1
ag1066
assS'Awm'
p1165
(dp1166
S'c:/Users/Bilal/Repositories/GameJam2/source/awm/AwmSoundManager.h'
p1167
(lp1168
I1
ag1066
asS'c:/Users/Bilal/Repositories/GameJam2/source/awm/AwmInput.h'
p1169
(lp1170
I1
ag1066
asS'c:/Users/Bilal/Repositories/GameJam2/source/awm/AwmButton.cpp'
p1171
(lp1172
I1
ag1066
asS'c:/Users/Bilal/Repositories/GameJam2/source/awm/AwmButton.h'
p1173
(lp1174
I1
ag1066
asS'c:/Users/Bilal/Repositories/GameJam2/source/awm/AwmInput.cpp'
p1175
(lp1176
I1
ag1066
asS'c:/Users/Bilal/Repositories/GameJam2/source/awm/AwmSoundManager.cpp'
p1177
(lp1178
I1
ag1066
assS'Extensions'
p1179
(dp1180
S'MessageBox'
p1181
(dp1182
S'interface'
p1183
(dp1184
S'c:/marmalade/6.3.3beta/extensions/messagebox/interface/MessageBox.defines.txt'
p1185
(lp1186
I1
a(dp1187
asS'c:/marmalade/6.3.3beta/extensions/messagebox/interface/MessageBox_interface.cpp'
p1188
(lp1189
I1
ag1187
assS'c:/marmalade/6.3.3beta/extensions/messagebox/messagebox.mkf'
p1190
(lp1191
I1
a(dp1192
asS'c:/marmalade/6.3.3beta/extensions/messagebox/h/MessageBox.h'
p1193
(lp1194
I1
ag1187
asssS"'Marmalade Studio'"
p1195
(dp1196
S'iwgl'
p1197
(dp1198
S'c:/marmalade/6.3.3beta/modules/iwgl/h/IwGLExt.h'
p1199
(lp1200
I1
a(dp1201
asS'c:/marmalade/6.3.3beta/modules/iwgl/iwgl.mkf'
p1202
(lp1203
I1
a(dp1204
asS'c:/marmalade/6.3.3beta/modules/iwgl/h/IwGL.h'
p1205
(lp1206
I1
ag1201
asS'c:/marmalade/6.3.3beta/modules/iwgl/docs/iwgl.config.txt'
p1207
(lp1208
I1
ag1201
assS'iw2d'
p1209
(dp1210
S'c:/marmalade/6.3.3beta/modules/iw2d/docs/iw2d.config.txt'
p1211
(lp1212
I1
a(dp1213
asS'c:/marmalade/6.3.3beta/modules/iw2d/h/Iw2D.h'
p1214
(lp1215
I1
ag1213
asS'c:/marmalade/6.3.3beta/modules/iw2d/docs/iw2d_public.defines.txt'
p1216
(lp1217
I1
ag1213
asS'c:/marmalade/6.3.3beta/modules/iw2d/iw2d.mkf'
p1218
(lp1219
I1
a(dp1220
assS'iwgxfont'
p1221
(dp1222
S'c:/marmalade/6.3.3beta/modules/iwgxfont/iwgxfont.mkf'
p1223
(lp1224
I1
a(dp1225
asS'c:/marmalade/6.3.3beta/modules/iwgxfont/docs/iwgxfont_public.defines.txt'
p1226
(lp1227
I1
a(dp1228
asS'c:/marmalade/6.3.3beta/modules/iwgxfont/h/IwGxFontContainer.h'
p1229
(lp1230
I1
ag1228
asS'c:/marmalade/6.3.3beta/modules/iwgxfont/docs/iwgxfont.config.txt'
p1231
(lp1232
I1
ag1228
asS'c:/marmalade/6.3.3beta/modules/iwgxfont/h/IwGxFont.h'
p1233
(lp1234
I1
ag1228
asS'c:/marmalade/6.3.3beta/modules/iwgxfont/h/IwGxFontState.h'
p1235
(lp1236
I1
ag1228
asS'c:/marmalade/6.3.3beta/modules/iwgxfont/h/IwGxFontPreparedData.h'
p1237
(lp1238
I1
ag1228
asS'c:/marmalade/6.3.3beta/modules/iwgxfont/h/IwGxFontGlyph.h'
p1239
(lp1240
I1
ag1228
asS'c:/marmalade/6.3.3beta/modules/iwgxfont/h/IwGxFontTypes.h'
p1241
(lp1242
I1
ag1228
assS'iwgeom'
p1243
(dp1244
S'c:/marmalade/6.3.3beta/modules/iwgeom/h/IwGeomFIntersect.h'
p1245
(lp1246
I1
a(dp1247
asS'c:/marmalade/6.3.3beta/modules/iwgeom/h/IwGeomIntersect.h'
p1248
(lp1249
I1
ag1247
asS'c:/marmalade/6.3.3beta/modules/iwgeom/h/IwGeomPlane.h'
p1250
(lp1251
I1
ag1247
asS'c:/marmalade/6.3.3beta/modules/iwgeom/h/IwGeomCore.h'
p1252
(lp1253
I1
ag1247
asS'c:/marmalade/6.3.3beta/modules/iwgeom/h/IwGeomLegacy.h'
p1254
(lp1255
I1
ag1247
asS'c:/marmalade/6.3.3beta/modules/iwgeom/h/IwGeomMat2D.h'
p1256
(lp1257
I1
ag1247
asS'c:/marmalade/6.3.3beta/modules/iwgeom/h/IwGeomSqrt.h'
p1258
(lp1259
I1
ag1247
asS'c:/marmalade/6.3.3beta/modules/iwgeom/h/IwGeomFQuat.h'
p1260
(lp1261
I1
ag1247
asS'c:/marmalade/6.3.3beta/modules/iwgeom/h/IwGeomMenu.h'
p1262
(lp1263
I1
ag1247
asS'c:/marmalade/6.3.3beta/modules/iwgeom/h/IwGeomFVec3.h'
p1264
(lp1265
I1
ag1247
asS'c:/marmalade/6.3.3beta/modules/iwgeom/iwgeom.mkf'
p1266
(lp1267
I1
a(dp1268
asS'c:/marmalade/6.3.3beta/modules/iwgeom/h/IwGeomFVec4.h'
p1269
(lp1270
I1
ag1247
asS'c:/marmalade/6.3.3beta/modules/iwgeom/h/IwGeomSVec2.h'
p1271
(lp1272
I1
ag1247
asS'c:/marmalade/6.3.3beta/modules/iwgeom/h/IwGeomSQuat.h'
p1273
(lp1274
I1
ag1247
asS'c:/marmalade/6.3.3beta/modules/iwgeom/h/IwGeomSphere.h'
p1275
(lp1276
I1
ag1247
asS'c:/marmalade/6.3.3beta/modules/iwgeom/h/IwGeomBBox.h'
p1277
(lp1278
I1
ag1247
asS'c:/marmalade/6.3.3beta/modules/iwgeom/h/IwGeomSVec4.h'
p1279
(lp1280
I1
ag1247
asS'c:/marmalade/6.3.3beta/modules/iwgeom/h/IwGeomFBBox.h'
p1281
(lp1282
I1
ag1247
asS'c:/marmalade/6.3.3beta/modules/iwgeom/h/IwGeomFSphere.h'
p1283
(lp1284
I1
ag1247
asS'c:/marmalade/6.3.3beta/modules/iwgeom/h/IwGeom.h'
p1285
(lp1286
I1
ag1247
asS'c:/marmalade/6.3.3beta/modules/iwgeom/h/IwGeomFPlane.h'
p1287
(lp1288
I1
ag1247
asS'c:/marmalade/6.3.3beta/modules/iwgeom/docs/iwgeom.config.txt'
p1289
(lp1290
I1
ag1247
asS'c:/marmalade/6.3.3beta/modules/iwgeom/h/IwGeomVec2.h'
p1291
(lp1292
I1
ag1247
asS'c:/marmalade/6.3.3beta/modules/iwgeom/h/IwGeomQuat.h'
p1293
(lp1294
I1
ag1247
asS'c:/marmalade/6.3.3beta/modules/iwgeom/h/IwGeomMat.h'
p1295
(lp1296
I1
ag1247
asS'c:/marmalade/6.3.3beta/modules/iwgeom/h/IwGeomFVec2.h'
p1297
(lp1298
I1
ag1247
asS'c:/marmalade/6.3.3beta/modules/iwgeom/h/IwGeomFMat.h'
p1299
(lp1300
I1
ag1247
asS'c:/marmalade/6.3.3beta/modules/iwgeom/h/IwGeomSVec3.h'
p1301
(lp1302
I1
ag1247
asS'c:/marmalade/6.3.3beta/modules/iwgeom/h/IwGeomVec.h'
p1303
(lp1304
I1
ag1247
asS'c:/marmalade/6.3.3beta/modules/iwgeom/h/IwGeomFMat2D.h'
p1305
(lp1306
I1
ag1247
asS'c:/marmalade/6.3.3beta/modules/iwgeom/h/IwGeomVec4.h'
p1307
(lp1308
I1
ag1247
asS'c:/marmalade/6.3.3beta/modules/iwgeom/h/IwGeomVec3.h'
p1309
(lp1310
I1
ag1247
assS'iwresmanager'
p1311
(dp1312
S'c:/marmalade/6.3.3beta/modules/iwresmanager/h/IwResHandlerGROUP.h'
p1313
(lp1314
I1
a(dp1315
asS'c:/marmalade/6.3.3beta/modules/iwresmanager/h/IwResManagerClass.h'
p1316
(lp1317
I1
ag1315
asS'c:/marmalade/6.3.3beta/modules/iwresmanager/h/IwResHandler.h'
p1318
(lp1319
I1
ag1315
asS'c:/marmalade/6.3.3beta/modules/iwresmanager/h/IwResGroup.h'
p1320
(lp1321
I1
ag1315
asS'c:/marmalade/6.3.3beta/modules/iwresmanager/h/IwResHandlerImage.h'
p1322
(lp1323
I1
ag1315
asS'c:/marmalade/6.3.3beta/modules/iwresmanager/iwresmanager.mkf'
p1324
(lp1325
I1
a(dp1326
asS'c:/marmalade/6.3.3beta/modules/iwresmanager/h/IwResSerialise.h'
p1327
(lp1328
I1
ag1315
asS'c:/marmalade/6.3.3beta/modules/iwresmanager/h/IwResManager.h'
p1329
(lp1330
I1
ag1315
asS'c:/marmalade/6.3.3beta/modules/iwresmanager/docs/iwresmanager.config.txt'
p1331
(lp1332
I1
ag1315
asS'c:/marmalade/6.3.3beta/modules/iwresmanager/h/IwResHandlerITX.h'
p1333
(lp1334
I1
ag1315
assS'iwgx'
p1335
(dp1336
S'c:/marmalade/6.3.3beta/modules/iwgx/h/IwTPage.h'
p1337
(lp1338
I1
a(dp1339
asS'c:/marmalade/6.3.3beta/modules/iwgx/h/IwFColour.h'
p1340
(lp1341
I1
ag1339
asS'c:/marmalade/6.3.3beta/modules/iwgx/h/IwDebugPrim.h'
p1342
(lp1343
I1
ag1339
asS'c:/marmalade/6.3.3beta/modules/iwgx/h/IwColour.h'
p1344
(lp1345
I1
ag1339
asS'c:/marmalade/6.3.3beta/modules/iwgx/h/IwGxShaderTechnique.h'
p1346
(lp1347
I1
ag1339
asS'c:/marmalade/6.3.3beta/modules/iwgx/h/IwResHandlerMTL.h'
p1348
(lp1349
I1
ag1339
asS'c:/marmalade/6.3.3beta/modules/iwgx/h/IwGx.h'
p1350
(lp1351
I1
ag1339
asS'c:/marmalade/6.3.3beta/modules/iwgx/iwgx.mkf'
p1352
(lp1353
I1
a(dp1354
asS'c:/marmalade/6.3.3beta/modules/iwgx/h/IwGxTypes.h'
p1355
(lp1356
I1
ag1339
asS'c:/marmalade/6.3.3beta/modules/iwgx/docs/iwgx_public.defines.txt'
p1357
(lp1358
I1
ag1339
asS'c:/marmalade/6.3.3beta/modules/iwgx/h/IwGxSurface.h'
p1359
(lp1360
I1
ag1339
asS'c:/marmalade/6.3.3beta/modules/iwgx/h/IwClip.inl'
p1361
(lp1362
I1
ag1339
asS'c:/marmalade/6.3.3beta/modules/iwgx/h/IwTexture.h'
p1363
(lp1364
I1
ag1339
asS'c:/marmalade/6.3.3beta/modules/iwgx/h/IwGxPrint.h'
p1365
(lp1366
I1
ag1339
asS'c:/marmalade/6.3.3beta/modules/iwgx/h/IwMatAnim.h'
p1367
(lp1368
I1
ag1339
asS'c:/marmalade/6.3.3beta/modules/iwgx/docs/iwgx.config.txt'
p1369
(lp1370
I1
ag1339
asS'c:/marmalade/6.3.3beta/modules/iwgx/h/IwGxMetrics.h'
p1371
(lp1372
I1
ag1339
asS'c:/marmalade/6.3.3beta/modules/iwgx/h/IwGxError.h'
p1373
(lp1374
I1
ag1339
asS'c:/marmalade/6.3.3beta/modules/iwgx/h/IwClip.h'
p1375
(lp1376
I1
ag1339
asS'c:/marmalade/6.3.3beta/modules/iwgx/h/IwGxStream.h'
p1377
(lp1378
I1
ag1339
asS'c:/marmalade/6.3.3beta/modules/iwgx/h/IwMaterial.h'
p1379
(lp1380
I1
ag1339
asS'c:/marmalade/6.3.3beta/modules/iwgx/h/IwGxState.h'
p1381
(lp1382
I1
ag1339
asS'c:/marmalade/6.3.3beta/modules/iwgx/h/IwGxTransformSW.h'
p1383
(lp1384
I1
ag1339
asS'c:/marmalade/6.3.3beta/modules/iwgx/h/IwGxFuncTable.h'
p1385
(lp1386
I1
ag1339
asS'c:/marmalade/6.3.3beta/modules/iwgx/h/IwGxDebug.h'
p1387
(lp1388
I1
ag1339
assS'iwutil'
p1389
(dp1390
S'c:/marmalade/6.3.3beta/modules/iwutil/h/IwUtil.h'
p1391
(lp1392
I1
a(dp1393
asS'c:/marmalade/6.3.3beta/modules/iwutil/h/IwResource.h'
p1394
(lp1395
I1
ag1393
asS'c:/marmalade/6.3.3beta/modules/iwutil/h/IwOptimiseSpeed.h'
p1396
(lp1397
I1
ag1393
asS'c:/marmalade/6.3.3beta/modules/iwutil/h/IwTextParseable.h'
p1398
(lp1399
I1
ag1393
asS'c:/marmalade/6.3.3beta/modules/iwutil/h/IwManagedList.h'
p1400
(lp1401
I1
ag1393
asS'c:/marmalade/6.3.3beta/modules/iwutil/h/IwFile.h'
p1402
(lp1403
I1
ag1393
asS'c:/marmalade/6.3.3beta/modules/iwutil/h/IwDebug.h'
p1404
(lp1405
I1
ag1393
asS'c:/marmalade/6.3.3beta/modules/iwutil/h/IwDivide.h'
p1406
(lp1407
I1
ag1393
asS'c:/marmalade/6.3.3beta/modules/iwutil/h/IwSingleton.h'
p1408
(lp1409
I1
ag1393
asS'c:/marmalade/6.3.3beta/modules/iwutil/iwutil.mkf'
p1410
(lp1411
I1
a(dp1412
asS'c:/marmalade/6.3.3beta/modules/iwutil/h/IwClassFactory.h'
p1413
(lp1414
I1
ag1393
asS'c:/marmalade/6.3.3beta/modules/iwutil/h/IwMemBucketHelpers.h'
p1415
(lp1416
I1
ag1393
asS'c:/marmalade/6.3.3beta/modules/iwutil/h/IwAllocator.h'
p1417
(lp1418
I1
ag1393
asS'c:/marmalade/6.3.3beta/modules/iwutil/h/IwString.h'
p1419
(lp1420
I1
ag1393
asS'c:/marmalade/6.3.3beta/modules/iwutil/h/IwTextParser.h'
p1421
(lp1422
I1
ag1393
asS'c:/marmalade/6.3.3beta/modules/iwutil/h/IwRuntime.h'
p1423
(lp1424
I1
ag1393
asS'c:/marmalade/6.3.3beta/modules/iwutil/h/IwUTF8.h'
p1425
(lp1426
I1
ag1393
asS'c:/marmalade/6.3.3beta/modules/iwutil/h/IwBuffer.h'
p1427
(lp1428
I1
ag1393
asS'c:/marmalade/6.3.3beta/modules/iwutil/h/IwUtilInitTerm.h'
p1429
(lp1430
I1
ag1393
asS'c:/marmalade/6.3.3beta/modules/iwutil/h/IwRandom.h'
p1431
(lp1432
I1
ag1393
asS'c:/marmalade/6.3.3beta/modules/iwutil/h/IwSerialise.h'
p1433
(lp1434
I1
ag1393
asS'c:/marmalade/6.3.3beta/modules/iwutil/h/IwHashString.h'
p1435
(lp1436
I1
ag1393
asS'c:/marmalade/6.3.3beta/modules/iwutil/h/IwCore.h'
p1437
(lp1438
I1
ag1393
asS'c:/marmalade/6.3.3beta/modules/iwutil/h/IwTextParserITX.h'
p1439
(lp1440
I1
ag1393
asS'c:/marmalade/6.3.3beta/modules/iwutil/h/IwKeymap.h'
p1441
(lp1442
I1
ag1393
asS'c:/marmalade/6.3.3beta/modules/iwutil/h/IwArray.h'
p1443
(lp1444
I1
ag1393
asS'c:/marmalade/6.3.3beta/modules/iwutil/h/IwOptimiseThumb.h'
p1445
(lp1446
I1
ag1393
asS'c:/marmalade/6.3.3beta/modules/iwutil/h/IwMemManagerDL.h'
p1447
(lp1448
I1
ag1393
asS'c:/marmalade/6.3.3beta/modules/iwutil/h/IwUncopyable.h'
p1449
(lp1450
I1
ag1393
asS'c:/marmalade/6.3.3beta/modules/iwutil/h/IwEvent.h'
p1451
(lp1452
I1
ag1393
asS'c:/marmalade/6.3.3beta/modules/iwutil/h/IwMath.h'
p1453
(lp1454
I1
ag1393
asS'c:/marmalade/6.3.3beta/modules/iwutil/h/IwManaged.h'
p1455
(lp1456
I1
ag1393
asS'c:/marmalade/6.3.3beta/modules/iwutil/h/IwImage.h'
p1457
(lp1458
I1
ag1393
asS'c:/marmalade/6.3.3beta/modules/iwutil/h/IwMemBucket.h'
p1459
(lp1460
I1
ag1393
asS'c:/marmalade/6.3.3beta/modules/iwutil/h/IwProfileMenu.h'
p1461
(lp1462
I1
ag1393
asS'c:/marmalade/6.3.3beta/modules/iwutil/h/IwOptimiseSize.h'
p1463
(lp1464
I1
ag1393
asS'c:/marmalade/6.3.3beta/modules/iwutil/h/IwList.h'
p1465
(lp1466
I1
ag1393
asS'c:/marmalade/6.3.3beta/modules/iwutil/h/IwFibre.h'
p1467
(lp1468
I1
ag1393
asS'c:/marmalade/6.3.3beta/modules/iwutil/h/IwVariableBitField.h'
p1469
(lp1470
I1
ag1393
asS'c:/marmalade/6.3.3beta/modules/iwutil/h/IwDivTable.h'
p1471
(lp1472
I1
ag1393
asS'c:/marmalade/6.3.3beta/modules/iwutil/h/IwMemory.h'
p1473
(lp1474
I1
ag1393
asS'c:/marmalade/6.3.3beta/modules/iwutil/h/IwPath.h'
p1475
(lp1476
I1
ag1393
asS'c:/marmalade/6.3.3beta/modules/iwutil/h/IwCopyingPtr.h'
p1477
(lp1478
I1
ag1393
asS'c:/marmalade/6.3.3beta/modules/iwutil/h/IwOptimiseARM.h'
p1479
(lp1480
I1
ag1393
asS'c:/marmalade/6.3.3beta/modules/iwutil/h/IwChar.h'
p1481
(lp1482
I1
ag1393
asS'c:/marmalade/6.3.3beta/modules/iwutil/h/IwAutoFile.h'
p1483
(lp1484
I1
ag1393
asS'c:/marmalade/6.3.3beta/modules/iwutil/h/IwTypes.h'
p1485
(lp1486
I1
ag1393
asS'c:/marmalade/6.3.3beta/modules/iwutil/h/IwImageHelper.h'
p1487
(lp1488
I1
ag1393
asS'c:/marmalade/6.3.3beta/modules/iwutil/h/IwMenu.h'
p1489
(lp1490
I1
ag1393
asS'c:/marmalade/6.3.3beta/modules/iwutil/docs/iwutil.config.txt'
p1491
(lp1492
I1
ag1393
asssS'(zlib)'
p1493
(dp1494
g1007
(dp1495
S'c:/marmalade/6.3.3beta/modules/third_party/zlib/h/zconf.h'
p1496
(lp1497
I1
a(dp1498
asS'c:/marmalade/6.3.3beta/modules/third_party/zlib/h/zlib.h'
p1499
(lp1500
I1
ag1498
assS'c:/marmalade/6.3.3beta/modules/third_party/zlib/zlib.mkf'
p1501
(lp1502
I1
a(dp1503
assS'(sqlite)'
p1504
(dp1505
Vc:/users/bilal/appdata/roaming/marmalade/packages/6.3.3/sqlite_3.6.10/sqlite.mkf
p1506
(lp1507
I1
a(dp1508
asVc:/users/bilal/appdata/roaming/marmalade/packages/6.3.3/sqlite_3.6.10/h/sqlite3.h
p1509
(lp1510
I1
a(dp1511
asVc:/users/bilal/appdata/roaming/marmalade/packages/6.3.3/sqlite_3.6.10/h/sqlite3ext.h
p1512
(lp1513
I1
ag1511
asVc:/users/bilal/appdata/roaming/marmalade/packages/6.3.3/sqlite_3.6.10/docs/sqlite.defines.txt
p1514
(lp1515
I1
ag1511
asssS'files'
p1516
(dp1517
S'IwGxFontPreparedData.h'
p1518
g260
(cmkb_main
File
p1519
g262
Ntp1520
Rp1521
(dp1522
S'flags'
p1523
g1228
sS'group'
p1524
(lp1525
S"'Marmalade Studio'"
p1526
ag1221
asg287
g1237
sbsS'Slot.cpp'
p1527
g260
(g1519
g262
Ntp1528
Rp1529
(dp1530
g1523
g903
sg1524
(lp1531
g897
ag899
asg287
g942
sbsS'iterator'
p1532
g260
(g1519
g262
Ntp1533
Rp1534
(dp1535
g1523
(dp1536
sg1524
(lp1537
S"'Marmalade System (S3E)'"
p1538
aS'stdc headers'
p1539
aS'c++'
p1540
asg287
S'c:/marmalade/6.3.3beta/s3e/h/std/c++/iterator'
p1541
sbsS'IwGeomPlane.h'
p1542
g260
(g1519
g262
Ntp1543
Rp1544
(dp1545
g1523
g1247
sg1524
(lp1546
S"'Marmalade Studio'"
p1547
ag1243
asg287
g1250
sbsS's3e.h'
p1548
g260
(g1519
g262
Ntp1549
Rp1550
(dp1551
g1523
g1536
sg1524
(lp1552
g1538
asg287
S'c:/marmalade/6.3.3beta/s3e/h/s3e.h'
p1553
sbsS'errno.h'
p1554
g260
(g1519
g262
Ntp1555
Rp1556
(dp1557
g1523
g1536
sg1524
(lp1558
g1538
aS'stdc headers'
p1559
asg287
S'c:/marmalade/6.3.3beta/s3e/h/std/errno.h'
p1560
sbsS'IwSingleton.h'
p1561
g260
(g1519
g262
Ntp1562
Rp1563
(dp1564
g1523
g1393
sg1524
(lp1565
S"'Marmalade Studio'"
p1566
ag1389
asg287
g1408
sbsS'dlfcn.h'
p1567
g260
(g1519
g262
Ntp1568
Rp1569
(dp1570
g1523
g1536
sg1524
g1558
sg287
S'c:/marmalade/6.3.3beta/s3e/h/std/dlfcn.h'
p1571
sbsS'stdio_streambuf'
p1572
g260
(g1519
g262
Ntp1573
Rp1574
(dp1575
g1523
g1536
sg1524
g1537
sg287
S'c:/marmalade/6.3.3beta/s3e/h/std/c++/stdio_streambuf'
p1576
sbsS'sched.h'
p1577
g260
(g1519
g262
Ntp1578
Rp1579
(dp1580
g1523
g1536
sg1524
g1558
sg287
S'c:/marmalade/6.3.3beta/s3e/h/std/sched.h'
p1581
sbsS'IwSoundPCM.h'
p1582
g260
(g1519
g262
Ntp1583
Rp1584
(dp1585
g1523
g1077
sg1524
(lp1586
g1073
asg287
g1088
sbsS'IwGeomFMat2D.h'
p1587
g260
(g1519
g262
Ntp1588
Rp1589
(dp1590
g1523
g1247
sg1524
g1546
sg287
g1305
sbsS'cassert'
p1591
g260
(g1519
g262
Ntp1592
Rp1593
(dp1594
g1523
g1536
sg1524
g1537
sg287
S'c:/marmalade/6.3.3beta/s3e/h/std/c++/cassert'
p1595
sbsS'grp.h'
p1596
g260
(g1519
g262
Ntp1597
Rp1598
(dp1599
g1523
g1536
sg1524
g1558
sg287
S'c:/marmalade/6.3.3beta/s3e/h/std/grp.h'
p1600
sbsS'list'
p1601
g260
(g1519
g262
Ntp1602
Rp1603
(dp1604
g1523
g1536
sg1524
g1537
sg287
S'c:/marmalade/6.3.3beta/s3e/h/std/c++/list'
p1605
sbsS'IwSoundSpec.cpp'
p1606
g260
(g1519
g262
Ntp1607
Rp1608
(dp1609
g1523
g1077
sg1524
g1586
sg287
g1082
sbsS'istream'
p1610
g260
(g1519
g262
Ntp1611
Rp1612
(dp1613
g1523
g1536
sg1524
g1537
sg287
S'c:/marmalade/6.3.3beta/s3e/h/std/c++/istream'
p1614
sbsS'jpeglib.h'
p1615
g260
(g1519
g262
Ntp1616
Rp1617
(dp1618
g1523
g1022
sg1524
(lp1619
g1017
ag1007
asg287
g1025
sbsS'iw2d_public.defines.txt'
p1620
g260
(g1519
g262
Ntp1621
Rp1622
(dp1623
g1523
g1213
sg1524
(lp1624
S"'Marmalade Studio'"
p1625
ag1209
asg287
g1216
sbsS'iostream.h'
p1626
g260
(g1519
g262
Ntp1627
Rp1628
(dp1629
g1523
g1536
sg1524
g1537
sg287
S'c:/marmalade/6.3.3beta/s3e/h/std/c++/iostream.h'
p1630
sbsS'Atlas.cpp'
p1631
g260
(g1519
g262
Ntp1632
Rp1633
(dp1634
g1523
g903
sg1524
(lp1635
g897
ag981
asg287
g991
sbsS'IwSoundADPCM.h'
p1636
g260
(g1519
g262
Ntp1637
Rp1638
(dp1639
g1523
g1077
sg1524
g1586
sg287
g1092
sbsS'Animation.h'
p1640
g260
(g1519
g262
Ntp1641
Rp1642
(dp1643
g1523
g903
sg1524
g1531
sg287
g926
sbsS'string'
p1644
g260
(g1519
g262
Ntp1645
Rp1646
(dp1647
g1523
g1536
sg1524
g1537
sg287
S'c:/marmalade/6.3.3beta/s3e/h/std/c++/string'
p1648
sbsS'IwMemory.h'
p1649
g260
(g1519
g262
Ntp1650
Rp1651
(dp1652
g1523
g1393
sg1524
g1565
sg287
g1473
sbsS'IwGL.h'
p1653
g260
(g1519
g262
Ntp1654
Rp1655
(dp1656
g1523
g1201
sg1524
(lp1657
S"'Marmalade Studio'"
p1658
ag1197
asg287
g1205
sbsS'iw2d.config.txt'
p1659
g260
(g1519
g262
Ntp1660
Rp1661
(dp1662
g1523
g1213
sg1524
g1624
sg287
g1211
sbsS'iomanip'
p1663
g260
(g1519
g262
Ntp1664
Rp1665
(dp1666
g1523
g1536
sg1524
g1537
sg287
S'c:/marmalade/6.3.3beta/s3e/h/std/c++/iomanip'
p1667
sbsS'Animation.cpp'
p1668
g260
(g1519
g262
Ntp1669
Rp1670
(dp1671
g1523
g903
sg1524
g1531
sg287
g914
sbsS'dynamicArray.h'
p1672
g260
(g1519
g262
Ntp1673
Rp1674
(dp1675
g1523
g1066
sg1524
(lp1676
g1121
asg287
g1123
sbsS'IwGxError.h'
p1677
g260
(g1519
g262
Ntp1678
Rp1679
(dp1680
g1523
g1339
sg1524
(lp1681
S"'Marmalade Studio'"
p1682
ag1335
asg287
g1373
sbsS'Skin.cpp'
p1683
g260
(g1519
g262
Ntp1684
Rp1685
(dp1686
g1523
g903
sg1524
g1531
sg287
g906
sbsS'BoneData.h'
p1687
g260
(g1519
g262
Ntp1688
Rp1689
(dp1690
g1523
g903
sg1524
g1531
sg287
g920
sbsS'IwGeomVec4.h'
p1691
g260
(g1519
g262
Ntp1692
Rp1693
(dp1694
g1523
g1247
sg1524
g1546
sg287
g1307
sbsS'dir.h'
p1695
g260
(g1519
g262
Ntp1696
Rp1697
(dp1698
g1523
g1536
sg1524
(lp1699
g1538
aS'stdc headers'
p1700
aS'sys'
p1701
asg287
S'c:/marmalade/6.3.3beta/s3e/h/std/sys/dir.h'
p1702
sbsS'locale.h'
p1703
g260
(g1519
g262
Ntp1704
Rp1705
(dp1706
g1523
g1536
sg1524
g1558
sg287
S'c:/marmalade/6.3.3beta/s3e/h/std/locale.h'
p1707
sbsS'observer.h'
p1708
g260
(g1519
g262
Ntp1709
Rp1710
(dp1711
g1523
g1066
sg1524
(lp1712
g1125
asg287
g1149
sbsS'vector'
p1713
g260
(g1519
g262
Ntp1714
Rp1715
(dp1716
g1523
g1536
sg1524
g1537
sg287
S'c:/marmalade/6.3.3beta/s3e/h/std/c++/vector'
p1717
sbsS'IwManaged.h'
p1718
g260
(g1519
g262
Ntp1719
Rp1720
(dp1721
g1523
g1393
sg1524
g1565
sg287
g1455
sbsS's3eCompass.h'
p1722
g260
(g1519
g262
Ntp1723
Rp1724
(dp1725
g1523
g1536
sg1524
g1552
sg287
S'c:/marmalade/6.3.3beta/s3e/h/s3eCompass.h'
p1726
sbsS'json_internalmap.inl'
p1727
g260
(g1519
g262
Ntp1728
Rp1729
(dp1730
g1523
g903
sg1524
(lp1731
g897
ag949
asg287
g957
sbsS'cderror.h'
p1732
g260
(g1519
g262
Ntp1733
Rp1734
(dp1735
g1523
g1022
sg1524
g1619
sg287
g1047
sbsS'climits'
p1736
g260
(g1519
g262
Ntp1737
Rp1738
(dp1739
g1523
g1536
sg1524
g1537
sg287
S'c:/marmalade/6.3.3beta/s3e/h/std/c++/climits'
p1740
sbsS'AtlasAttachmentLoader.cpp'
p1741
g260
(g1519
g262
Ntp1742
Rp1743
(dp1744
g1523
g903
sg1524
g1635
sg287
g995
sbsS's3eVibra.h'
p1745
g260
(g1519
g262
Ntp1746
Rp1747
(dp1748
g1523
g1536
sg1524
g1552
sg287
S'c:/marmalade/6.3.3beta/s3e/h/s3eVibra.h'
p1749
sbsS'jversion.h'
p1750
g260
(g1519
g262
Ntp1751
Rp1752
(dp1753
g1523
g1022
sg1524
g1619
sg287
g1029
sbsS'BaseSkeletonJson.h'
p1754
g260
(g1519
g262
Ntp1755
Rp1756
(dp1757
g1523
g903
sg1524
g1531
sg287
g918
sbsS'IwGxState.h'
p1758
g260
(g1519
g262
Ntp1759
Rp1760
(dp1761
g1523
g1339
sg1524
g1681
sg287
g1381
sbsS'level_generator.cpp'
p1762
g260
(g1519
g262
Ntp1763
Rp1764
(dp1765
g1523
g1066
sg1524
g1712
sg287
g1155
sbsS's3eAudio.h'
p1766
g260
(g1519
g262
Ntp1767
Rp1768
(dp1769
g1523
g1536
sg1524
g1552
sg287
S'c:/marmalade/6.3.3beta/s3e/h/s3eAudio.h'
p1770
sbsS'jinclude.h'
p1771
g260
(g1519
g262
Ntp1772
Rp1773
(dp1774
g1523
g1022
sg1524
g1619
sg287
g1043
sbsS's3eSurface.h'
p1775
g260
(g1519
g262
Ntp1776
Rp1777
(dp1778
g1523
g1536
sg1524
g1552
sg287
S'c:/marmalade/6.3.3beta/s3e/h/s3eSurface.h'
p1779
sbsS'new'
p1780
g260
(g1519
g262
Ntp1781
Rp1782
(dp1783
g1523
g1536
sg1524
g1537
sg287
S'c:/marmalade/6.3.3beta/s3e/h/std/c++/new'
p1784
sbsS's3eWindow.h'
p1785
g260
(g1519
g262
Ntp1786
Rp1787
(dp1788
g1523
g1536
sg1524
(lp1789
g1538
aS'Extensions'
p1790
asg287
S'c:/marmalade/6.3.3beta/s3e/h/ext/s3eWindow.h'
p1791
sbsS'IwBuffer.h'
p1792
g260
(g1519
g262
Ntp1793
Rp1794
(dp1795
g1523
g1393
sg1524
g1565
sg287
g1427
sbsS's3eOSExec.h'
p1796
g260
(g1519
g262
Ntp1797
Rp1798
(dp1799
g1523
g1536
sg1524
g1789
sg287
S'c:/marmalade/6.3.3beta/s3e/h/ext/s3eOSExec.h'
p1800
sbsS'BaseAtlas.h'
p1801
g260
(g1519
g262
Ntp1802
Rp1803
(dp1804
g1523
g903
sg1524
g1531
sg287
g934
sbsS'IwGxTransformSW.h'
p1805
g260
(g1519
g262
Ntp1806
Rp1807
(dp1808
g1523
g1339
sg1524
g1681
sg287
g1383
sbsS'unistd.h'
p1809
g260
(g1519
g262
Ntp1810
Rp1811
(dp1812
g1523
g1536
sg1524
g1558
sg287
S'c:/marmalade/6.3.3beta/s3e/h/std/unistd.h'
p1813
sbsS'iwgxfont.config.txt'
p1814
g260
(g1519
g262
Ntp1815
Rp1816
(dp1817
g1523
g1228
sg1524
g1525
sg287
g1231
sbsS'gl2platform.h'
p1818
g260
(g1519
g262
Ntp1819
Rp1820
(dp1821
g1523
g1536
sg1524
(lp1822
g1538
aS'GL'
p1823
aS'GLES 2.0'
p1824
asg287
S'c:/marmalade/6.3.3beta/s3e/h/GLES2/gl2platform.h'
p1825
sbsS'IwResManagerClass.h'
p1826
g260
(g1519
g262
Ntp1827
Rp1828
(dp1829
g1523
g1315
sg1524
(lp1830
g1195
ag1311
asg287
g1316
sbsS'queue'
p1831
g260
(g1519
g262
Ntp1832
Rp1833
(dp1834
g1523
g1536
sg1524
g1537
sg287
S'c:/marmalade/6.3.3beta/s3e/h/std/c++/queue'
p1835
sbsS'time_1.h'
p1836
g260
(g1519
g262
Ntp1837
Rp1838
(dp1839
g1523
g1536
sg1524
g1699
sg287
S'c:/marmalade/6.3.3beta/s3e/h/std/sys/time.h'
p1840
sbsS'Iw2D.h'
p1841
g260
(g1519
g262
Ntp1842
Rp1843
(dp1844
g1523
g1213
sg1524
g1624
sg287
g1214
sbsS'IwGeomVec2.h'
p1845
g260
(g1519
g262
Ntp1846
Rp1847
(dp1848
g1523
g1247
sg1524
g1546
sg287
g1291
sbsS'sendfile.h'
p1849
g260
(g1519
g262
Ntp1850
Rp1851
(dp1852
g1523
g1536
sg1524
g1699
sg287
S'c:/marmalade/6.3.3beta/s3e/h/std/sys/sendfile.h'
p1853
sbsS'malloc.h'
p1854
g260
(g1519
g262
Ntp1855
Rp1856
(dp1857
g1523
g1536
sg1524
g1558
sg287
S'c:/marmalade/6.3.3beta/s3e/h/std/malloc.h'
p1858
sbsS'Slot.h'
p1859
g260
(g1519
g262
Ntp1860
Rp1861
(dp1862
g1523
g903
sg1524
g1531
sg287
g944
sbsS'stdarg.h'
p1863
g260
(g1519
g262
Ntp1864
Rp1865
(dp1866
g1523
g1536
sg1524
g1558
sg287
S'c:/marmalade/6.3.3beta/s3e/h/std/stdarg.h'
p1867
sbsS'IwGeomCore.h'
p1868
g260
(g1519
g262
Ntp1869
Rp1870
(dp1871
g1523
g1247
sg1524
g1546
sg287
g1252
sbsS'endian.h'
p1872
g260
(g1519
g262
Ntp1873
Rp1874
(dp1875
g1523
g1536
sg1524
g1558
sg287
S'c:/marmalade/6.3.3beta/s3e/h/std/endian.h'
p1876
sbsS'glob.h'
p1877
g260
(g1519
g262
Ntp1878
Rp1879
(dp1880
g1523
g1536
sg1524
g1558
sg287
S'c:/marmalade/6.3.3beta/s3e/h/std/glob.h'
p1881
sbsS'fstream'
p1882
g260
(g1519
g262
Ntp1883
Rp1884
(dp1885
g1523
g1536
sg1524
g1537
sg287
S'c:/marmalade/6.3.3beta/s3e/h/std/c++/fstream'
p1886
sbsS's3eCamera.h'
p1887
g260
(g1519
g262
Ntp1888
Rp1889
(dp1890
g1523
g1536
sg1524
g1552
sg287
S'c:/marmalade/6.3.3beta/s3e/h/s3eCamera.h'
p1891
sbsS'jconfig.h'
p1892
g260
(g1519
g262
Ntp1893
Rp1894
(dp1895
g1523
g1022
sg1524
g1619
sg287
g1027
sbsS'memory'
p1896
g260
(g1519
g262
Ntp1897
Rp1898
(dp1899
g1523
g1536
sg1524
g1537
sg287
S'c:/marmalade/6.3.3beta/s3e/h/std/c++/memory'
p1900
sbsS'egl.h'
p1901
g260
(g1519
g262
Ntp1902
Rp1903
(dp1904
g1523
g1536
sg1524
(lp1905
g1538
aS'GL'
p1906
aS'EGL'
p1907
asg287
S'c:/marmalade/6.3.3beta/s3e/h/EGL/egl.h'
p1908
sbsS'egl_1.h'
p1909
g260
(g1519
g262
Ntp1910
Rp1911
(dp1912
g1523
g1536
sg1524
(lp1913
g1538
aS'GL'
p1914
aS'GLES 1.x'
p1915
asg287
S'c:/marmalade/6.3.3beta/s3e/h/GLES/egl.h'
p1916
sbsS'IwMemManagerDL.h'
p1917
g260
(g1519
g262
Ntp1918
Rp1919
(dp1920
g1523
g1393
sg1524
g1565
sg287
g1447
sbsS'AwmButton.cpp'
p1921
g260
(g1519
g262
Ntp1922
Rp1923
(dp1924
g1523
g1066
sg1524
(lp1925
g1165
asg287
g1171
sbsS'IwString.h'
p1926
g260
(g1519
g262
Ntp1927
Rp1928
(dp1929
g1523
g1393
sg1524
g1565
sg287
g1419
sbsS'cwchar'
p1930
g260
(g1519
g262
Ntp1931
Rp1932
(dp1933
g1523
g1536
sg1524
g1537
sg287
S'c:/marmalade/6.3.3beta/s3e/h/std/c++/cwchar'
p1934
sbsVsqlite.defines.txt
p1935
g260
(g1519
g262
Ntp1936
Rp1937
(dp1938
g1523
g1511
sg1524
(lp1939
g1504
asg287
g1514
sbsS'iwutil.mkf'
p1940
g260
(g1519
g262
Ntp1941
Rp1942
(dp1943
g1523
g1412
sg1524
g1565
sg287
g1410
sbsS'csignal'
p1944
g260
(g1519
g262
Ntp1945
Rp1946
(dp1947
g1523
g1536
sg1524
g1537
sg287
S'c:/marmalade/6.3.3beta/s3e/h/std/c++/csignal'
p1948
sbsS'pthread_types.h'
p1949
g260
(g1519
g262
Ntp1950
Rp1951
(dp1952
g1523
g1536
sg1524
g1558
sg287
S'c:/marmalade/6.3.3beta/s3e/h/std/pthread_types.h'
p1953
sbsS'pthread_alloc'
p1954
g260
(g1519
g262
Ntp1955
Rp1956
(dp1957
g1523
g1536
sg1524
g1537
sg287
S'c:/marmalade/6.3.3beta/s3e/h/std/c++/pthread_alloc'
p1958
sbsS'getopt.h'
p1959
g260
(g1519
g262
Ntp1960
Rp1961
(dp1962
g1523
g1536
sg1524
g1558
sg287
S'c:/marmalade/6.3.3beta/s3e/h/std/getopt.h'
p1963
sbsS'messagebox.mkf'
p1964
g260
(g1519
g262
Ntp1965
Rp1966
(dp1967
g1523
g1192
sg1524
(lp1968
g1179
ag1181
asg287
g1190
sbsS'IwOptimiseARM.h'
p1969
g260
(g1519
g262
Ntp1970
Rp1971
(dp1972
g1523
g1393
sg1524
g1565
sg287
g1479
sbsS'times.h'
p1973
g260
(g1519
g262
Ntp1974
Rp1975
(dp1976
g1523
g1536
sg1524
g1699
sg287
S'c:/marmalade/6.3.3beta/s3e/h/std/sys/times.h'
p1977
sbsS'IwGeomFSphere.h'
p1978
g260
(g1519
g262
Ntp1979
Rp1980
(dp1981
g1523
g1247
sg1524
g1546
sg287
g1283
sbsS'MessageBox.h'
p1982
g260
(g1519
g262
Ntp1983
Rp1984
(dp1985
g1523
g1187
sg1524
g1968
sg287
g1193
sbsS'RegionAttachment.h'
p1986
g260
(g1519
g262
Ntp1987
Rp1988
(dp1989
g1523
g903
sg1524
g1635
sg287
g989
sbsS'game.h'
p1990
g260
(g1519
g262
Ntp1991
Rp1992
(dp1993
g1523
g1066
sg1524
(lp1994
g1062
asg287
g1064
sbsS'functional'
p1995
g260
(g1519
g262
Ntp1996
Rp1997
(dp1998
g1523
g1536
sg1524
g1537
sg287
S'c:/marmalade/6.3.3beta/s3e/h/std/c++/functional'
p1999
sbsS'prctl.h'
p2000
g260
(g1519
g262
Ntp2001
Rp2002
(dp2003
g1523
g1536
sg1524
g1699
sg287
S'c:/marmalade/6.3.3beta/s3e/h/std/sys/prctl.h'
p2004
sbsS'IwTypes.h'
p2005
g260
(g1519
g262
Ntp2006
Rp2007
(dp2008
g1523
g1393
sg1524
g1565
sg287
g1485
sbsS'IwGxMetrics.h'
p2009
g260
(g1519
g262
Ntp2010
Rp2011
(dp2012
g1523
g1339
sg1524
g1681
sg287
g1371
sbsS'cstddef'
p2013
g260
(g1519
g262
Ntp2014
Rp2015
(dp2016
g1523
g1536
sg1524
g1537
sg287
S'c:/marmalade/6.3.3beta/s3e/h/std/c++/cstddef'
p2017
sbsS's3eCompression.h'
p2018
g260
(g1519
g262
Ntp2019
Rp2020
(dp2021
g1523
g1536
sg1524
g1552
sg287
S'c:/marmalade/6.3.3beta/s3e/h/s3eCompression.h'
p2022
sbsS'langinfo.h'
p2023
g260
(g1519
g262
Ntp2024
Rp2025
(dp2026
g1523
g1536
sg1524
g1558
sg287
S'c:/marmalade/6.3.3beta/s3e/h/std/langinfo.h'
p2027
sbsS's3edebugHeap.h'
p2028
g260
(g1519
g262
Ntp2029
Rp2030
(dp2031
g1523
g1536
sg1524
g1789
sg287
S'c:/marmalade/6.3.3beta/s3e/h/ext/s3edebugHeap.h'
p2032
sbsS'AirplayVersion.h'
p2033
g260
(g1519
g262
Ntp2034
Rp2035
(dp2036
g1523
g1536
sg1524
g1552
sg287
S'c:/marmalade/6.3.3beta/s3e/h/AirplayVersion.h'
p2037
sbsS'gl2extimg.h'
p2038
g260
(g1519
g262
Ntp2039
Rp2040
(dp2041
g1523
g1536
sg1524
g1822
sg287
S'c:/marmalade/6.3.3beta/s3e/h/GLES2/gl2extimg.h'
p2042
sbsS'menu.h'
p2043
g260
(g1519
g262
Ntp2044
Rp2045
(dp2046
g1523
g1066
sg1524
g1712
sg287
g1129
sbsS'app.config.txt'
p2047
g260
(g1519
g262
Ntp2048
Rp2049
(dp2050
g1523
(dp2051
sg1524
g4
sg287
S'c:/Users/Bilal/Repositories/GameJam2/data/app.config.txt'
p2052
sbsS'IwGeomSqrt.h'
p2053
g260
(g1519
g262
Ntp2054
Rp2055
(dp2056
g1523
g1247
sg1524
g1546
sg287
g1258
sbsS'tiniconv_int.h'
p2057
g260
(g1519
g262
Ntp2058
Rp2059
(dp2060
g1523
g1056
sg1524
(lp2061
g1052
asg287
g1054
sbsS'writer.h'
p2062
g260
(g1519
g262
Ntp2063
Rp2064
(dp2065
g1523
g903
sg1524
g1731
sg287
g963
sbsS'syslog.h'
p2066
g260
(g1519
g262
Ntp2067
Rp2068
(dp2069
g1523
g1536
sg1524
g1558
sg287
S'c:/marmalade/6.3.3beta/s3e/h/std/syslog.h'
p2070
sbsS'IwGxFontTypes.h'
p2071
g260
(g1519
g262
Ntp2072
Rp2073
(dp2074
g1523
g1228
sg1524
g1525
sg287
g1241
sbsS'IwGeomFIntersect.h'
p2075
g260
(g1519
g262
Ntp2076
Rp2077
(dp2078
g1523
g1247
sg1524
g1546
sg287
g1245
sbsS'hash_map'
p2079
g260
(g1519
g262
Ntp2080
Rp2081
(dp2082
g1523
g1536
sg1524
g1537
sg287
S'c:/marmalade/6.3.3beta/s3e/h/std/c++/hash_map'
p2083
sbsS's3e.mkf'
p2084
g260
(g1519
g262
Ntp2085
Rp2086
(dp2087
g1523
(dp2088
sg1524
g1552
sg287
S'c:/marmalade/6.3.3beta/s3e/s3e.mkf'
p2089
sbsS's3eOSReadString.h'
p2090
g260
(g1519
g262
Ntp2091
Rp2092
(dp2093
g1523
g1536
sg1524
g1789
sg287
S'c:/marmalade/6.3.3beta/s3e/h/ext/s3eOSReadString.h'
p2094
sbsS'json_reader.cpp'
p2095
g260
(g1519
g262
Ntp2096
Rp2097
(dp2098
g1523
g903
sg1524
g1731
sg287
g961
sbsS'autolink.h'
p2099
g260
(g1519
g262
Ntp2100
Rp2101
(dp2102
g1523
g903
sg1524
g1731
sg287
g959
sbsS'IwSound.h'
p2103
g260
(g1519
g262
Ntp2104
Rp2105
(dp2106
g1523
g1077
sg1524
g1586
sg287
g1115
sbsS'map'
p2107
g260
(g1519
g262
Ntp2108
Rp2109
(dp2110
g1523
g1536
sg1524
g1537
sg287
S'c:/marmalade/6.3.3beta/s3e/h/std/c++/map'
p2111
sbsS'IwOptimiseSpeed.h'
p2112
g260
(g1519
g262
Ntp2113
Rp2114
(dp2115
g1523
g1393
sg1524
g1565
sg287
g1396
sbsS'ostream'
p2116
g260
(g1519
g262
Ntp2117
Rp2118
(dp2119
g1523
g1536
sg1524
g1537
sg287
S'c:/marmalade/6.3.3beta/s3e/h/std/c++/ostream'
p2120
sbsS'msl_string.h'
p2121
g260
(g1519
g262
Ntp2122
Rp2123
(dp2124
g1523
g1536
sg1524
g1537
sg287
S'c:/marmalade/6.3.3beta/s3e/h/std/c++/msl_string.h'
p2125
sbsS'sigcontext.h'
p2126
g260
(g1519
g262
Ntp2127
Rp2128
(dp2129
g1523
g1536
sg1524
g1558
sg287
S'c:/marmalade/6.3.3beta/s3e/h/std/sigcontext.h'
p2130
sbsS'select.h'
p2131
g260
(g1519
g262
Ntp2132
Rp2133
(dp2134
g1523
g1536
sg1524
g1699
sg287
S'c:/marmalade/6.3.3beta/s3e/h/std/sys/select.h'
p2135
sbsS'zlib.mkf'
p2136
g260
(g1519
g262
Ntp2137
Rp2138
(dp2139
g1523
g1503
sg1524
(lp2140
g1493
asg287
g1501
sbsS'signal.h'
p2141
g260
(g1519
g262
Ntp2142
Rp2143
(dp2144
g1523
g1536
sg1524
g1558
sg287
S'c:/marmalade/6.3.3beta/s3e/h/std/signal.h'
p2145
sbsS's3eLibrary.h'
p2146
g260
(g1519
g262
Ntp2147
Rp2148
(dp2149
g1523
g1536
sg1524
g1789
sg287
S'c:/marmalade/6.3.3beta/s3e/h/ext/s3eLibrary.h'
p2150
sbsS'libpng.mkf'
p2151
g260
(g1519
g262
Ntp2152
Rp2153
(dp2154
g1523
g1016
sg1524
(lp2155
g1005
asg287
g1014
sbsS's3eClipboard.h'
p2156
g260
(g1519
g262
Ntp2157
Rp2158
(dp2159
g1523
g1536
sg1524
g1552
sg287
S'c:/marmalade/6.3.3beta/s3e/h/s3eClipboard.h'
p2160
sbsS'IwGxFuncTable.h'
p2161
g260
(g1519
g262
Ntp2162
Rp2163
(dp2164
g1523
g1339
sg1524
g1681
sg287
g1385
sbsS'IwResHandlerGROUP.h'
p2165
g260
(g1519
g262
Ntp2166
Rp2167
(dp2168
g1523
g1315
sg1524
g1830
sg287
g1313
sbsS's3eDebug.h'
p2169
g260
(g1519
g262
Ntp2170
Rp2171
(dp2172
g1523
g1536
sg1524
g1552
sg287
S'c:/marmalade/6.3.3beta/s3e/h/s3eDebug.h'
p2173
sbsS'socket.h'
p2174
g260
(g1519
g262
Ntp2175
Rp2176
(dp2177
g1523
g1536
sg1524
g1699
sg287
S'c:/marmalade/6.3.3beta/s3e/h/std/sys/socket.h'
p2178
sbsS'glext.h'
p2179
g260
(g1519
g262
Ntp2180
Rp2181
(dp2182
g1523
g1536
sg1524
g1913
sg287
S'c:/marmalade/6.3.3beta/s3e/h/GLES/glext.h'
p2183
sbsS'netdb.h'
p2184
g260
(g1519
g262
Ntp2185
Rp2186
(dp2187
g1523
g1536
sg1524
g1558
sg287
S'c:/marmalade/6.3.3beta/s3e/h/std/netdb.h'
p2188
sbsS'typeinfo.h'
p2189
g260
(g1519
g262
Ntp2190
Rp2191
(dp2192
g1523
g1536
sg1524
g1537
sg287
S'c:/marmalade/6.3.3beta/s3e/h/std/c++/typeinfo.h'
p2193
sbsS'typeinfo'
p2194
g260
(g1519
g262
Ntp2195
Rp2196
(dp2197
g1523
g1536
sg1524
g1537
sg287
S'c:/marmalade/6.3.3beta/s3e/h/std/c++/typeinfo'
p2198
sbsS'iwsound.config.txt'
p2199
g260
(g1519
g262
Ntp2200
Rp2201
(dp2202
g1523
g1077
sg1524
(lp2203
g1073
ag1084
asg287
g1086
sbsS'fstream.h'
p2204
g260
(g1519
g262
Ntp2205
Rp2206
(dp2207
g1523
g1536
sg1524
g1537
sg287
S'c:/marmalade/6.3.3beta/s3e/h/std/c++/fstream.h'
p2208
sbsS'Bone.h'
p2209
g260
(g1519
g262
Ntp2210
Rp2211
(dp2212
g1523
g903
sg1524
g1531
sg287
g940
sbsS'Skeleton.cpp'
p2213
g260
(g1519
g262
Ntp2214
Rp2215
(dp2216
g1523
g903
sg1524
g1635
sg287
g983
sbsS'iw2d.mkf'
p2217
g260
(g1519
g262
Ntp2218
Rp2219
(dp2220
g1523
g1220
sg1524
g1624
sg287
g1218
sbsS'iwgeom.mkf'
p2221
g260
(g1519
g262
Ntp2222
Rp2223
(dp2224
g1523
g1268
sg1524
g1546
sg287
g1266
sbsS's3eGL.h'
p2225
g260
(g1519
g262
Ntp2226
Rp2227
(dp2228
g1523
g1536
sg1524
g1552
sg287
S'c:/marmalade/6.3.3beta/s3e/h/s3eGL.h'
p2229
sbsS'IwGeomFVec2.h'
p2230
g260
(g1519
g262
Ntp2231
Rp2232
(dp2233
g1523
g1247
sg1524
g1546
sg287
g1297
sbsS'IwGeomSVec4.h'
p2234
g260
(g1519
g262
Ntp2235
Rp2236
(dp2237
g1523
g1247
sg1524
g1546
sg287
g1279
sbsS'IwGeom.h'
p2238
g260
(g1519
g262
Ntp2239
Rp2240
(dp2241
g1523
g1247
sg1524
g1546
sg287
g1285
sbsS'poll.h'
p2242
g260
(g1519
g262
Ntp2243
Rp2244
(dp2245
g1523
g1536
sg1524
g1558
sg287
S'c:/marmalade/6.3.3beta/s3e/h/std/poll.h'
p2246
sbsS'IwMatAnim.h'
p2247
g260
(g1519
g262
Ntp2248
Rp2249
(dp2250
g1523
g1339
sg1524
g1681
sg287
g1367
sbsS'Attachment.h'
p2251
g260
(g1519
g262
Ntp2252
Rp2253
(dp2254
g1523
g903
sg1524
g1531
sg287
g930
sbsS'IwGeomFVec4.h'
p2255
g260
(g1519
g262
Ntp2256
Rp2257
(dp2258
g1523
g1247
sg1524
g1546
sg287
g1269
sbsS'IwGx.h'
p2259
g260
(g1519
g262
Ntp2260
Rp2261
(dp2262
g1523
g1339
sg1524
g1681
sg287
g1350
sbsS'valarray'
p2263
g260
(g1519
g262
Ntp2264
Rp2265
(dp2266
g1523
g1536
sg1524
g1537
sg287
S'c:/marmalade/6.3.3beta/s3e/h/std/c++/valarray'
p2267
sbsS'iosfwd'
p2268
g260
(g1519
g262
Ntp2269
Rp2270
(dp2271
g1523
g1536
sg1524
g1537
sg287
S'c:/marmalade/6.3.3beta/s3e/h/std/c++/iosfwd'
p2272
sbsS'strstream.h'
p2273
g260
(g1519
g262
Ntp2274
Rp2275
(dp2276
g1523
g1536
sg1524
g1537
sg287
S'c:/marmalade/6.3.3beta/s3e/h/std/c++/strstream.h'
p2277
sbsS'gl2.h'
p2278
g260
(g1519
g262
Ntp2279
Rp2280
(dp2281
g1523
g1536
sg1524
g1822
sg287
S'c:/marmalade/6.3.3beta/s3e/h/GLES2/gl2.h'
p2282
sbsS'IwManagedList.h'
p2283
g260
(g1519
g262
Ntp2284
Rp2285
(dp2286
g1523
g1393
sg1524
g1565
sg287
g1400
sbsS'stdiostream.h'
p2287
g260
(g1519
g262
Ntp2288
Rp2289
(dp2290
g1523
g1536
sg1524
g1537
sg287
S'c:/marmalade/6.3.3beta/s3e/h/std/c++/stdiostream.h'
p2291
sbsS'mem.h'
p2292
g260
(g1519
g262
Ntp2293
Rp2294
(dp2295
g1523
g1536
sg1524
g1537
sg287
S'c:/marmalade/6.3.3beta/s3e/h/std/c++/mem.h'
p2296
sbsS'main.cpp'
p2297
g260
(g1519
g262
Ntp2298
Rp2299
(dp2300
g1523
g1066
sg1524
g1712
sg287
g1147
sbsS'zconf.h'
p2301
g260
(g1519
g262
Ntp2302
Rp2303
(dp2304
g1523
g1498
sg1524
(lp2305
g1493
ag1007
asg287
g1496
sbsS's3e.config.txt'
p2306
g260
(g1519
g262
Ntp2307
Rp2308
(dp2309
g1523
g1536
sg1524
g1552
sg287
S'c:/marmalade/6.3.3beta/s3e/s3e.config.txt'
p2310
sbsS'numeric'
p2311
g260
(g1519
g262
Ntp2312
Rp2313
(dp2314
g1523
g1536
sg1524
g1537
sg287
S'c:/marmalade/6.3.3beta/s3e/h/std/c++/numeric'
p2315
sbsS'utime.h'
p2316
g260
(g1519
g262
Ntp2317
Rp2318
(dp2319
g1523
g1536
sg1524
g1558
sg287
S'c:/marmalade/6.3.3beta/s3e/h/std/utime.h'
p2320
sbsS'spine.mkf'
p2321
g260
(g1519
g262
Ntp2322
Rp2323
(dp2324
g1523
g948
sg1524
(lp2325
g897
asg287
g946
sbsS'jdhuff.h'
p2326
g260
(g1519
g262
Ntp2327
Rp2328
(dp2329
g1523
g1022
sg1524
g1619
sg287
g1045
sbsS'IwResHandlerWAV.cpp'
p2330
g260
(g1519
g262
Ntp2331
Rp2332
(dp2333
g1523
g1077
sg1524
g1586
sg287
g1102
sbsS'SkeletonJson.cpp'
p2334
g260
(g1519
g262
Ntp2335
Rp2336
(dp2337
g1523
g903
sg1524
g1635
sg287
g985
sbsS'un.h'
p2338
g260
(g1519
g262
Ntp2339
Rp2340
(dp2341
g1523
g1536
sg1524
g1699
sg287
S'c:/marmalade/6.3.3beta/s3e/h/std/sys/un.h'
p2342
sbsS'stdio.h'
p2343
g260
(g1519
g262
Ntp2344
Rp2345
(dp2346
g1523
g1536
sg1524
g1558
sg287
S'c:/marmalade/6.3.3beta/s3e/h/std/stdio.h'
p2347
sbsS'IwImage.h'
p2348
g260
(g1519
g262
Ntp2349
Rp2350
(dp2351
g1523
g1393
sg1524
g1565
sg287
g1457
sbsS's3eImagePicker.h'
p2352
g260
(g1519
g262
Ntp2353
Rp2354
(dp2355
g1523
g1536
sg1524
g1789
sg287
S'c:/marmalade/6.3.3beta/s3e/h/ext/s3eImagePicker.h'
p2356
sbsS'scrolling_background.h'
p2357
g260
(g1519
g262
Ntp2358
Rp2359
(dp2360
g1523
g1066
sg1524
g1712
sg287
g1133
sbsS'view.h'
p2361
g260
(g1519
g262
Ntp2362
Rp2363
(dp2364
g1523
g1066
sg1524
g1994
sg287
g1067
sbsS'stdlib.h'
p2365
g260
(g1519
g262
Ntp2366
Rp2367
(dp2368
g1523
g1536
sg1524
g1558
sg287
S'c:/marmalade/6.3.3beta/s3e/h/std/stdlib.h'
p2369
sbsS'IwCopyingPtr.h'
p2370
g260
(g1519
g262
Ntp2371
Rp2372
(dp2373
g1523
g1393
sg1524
g1565
sg287
g1477
sbsS'iostream'
p2374
g260
(g1519
g262
Ntp2375
Rp2376
(dp2377
g1523
g1536
sg1524
g1537
sg287
S'c:/marmalade/6.3.3beta/s3e/h/std/c++/iostream'
p2378
sbsS'png.h'
p2379
g260
(g1519
g262
Ntp2380
Rp2381
(dp2382
g1523
g1011
sg1524
(lp2383
g1005
ag1007
asg287
g1009
sbsS'ios'
p2384
g260
(g1519
g262
Ntp2385
Rp2386
(dp2387
g1523
g1536
sg1524
g1537
sg287
S'c:/marmalade/6.3.3beta/s3e/h/std/c++/ios'
p2388
sbsS'stddef.h'
p2389
g260
(g1519
g262
Ntp2390
Rp2391
(dp2392
g1523
g1536
sg1524
g1558
sg287
S'c:/marmalade/6.3.3beta/s3e/h/std/stddef.h'
p2393
sbsS'setjmp_win32.h'
p2394
g260
(g1519
g262
Ntp2395
Rp2396
(dp2397
g1523
g1536
sg1524
g1558
sg287
S'c:/marmalade/6.3.3beta/s3e/h/std/setjmp_win32.h'
p2398
sbsS'IwGxPrint.h'
p2399
g260
(g1519
g262
Ntp2400
Rp2401
(dp2402
g1523
g1339
sg1524
g1681
sg287
g1365
sbsS'IwGeomSVec2.h'
p2403
g260
(g1519
g262
Ntp2404
Rp2405
(dp2406
g1523
g1247
sg1524
g1546
sg287
g1271
sbsS'streambuf.h'
p2407
g260
(g1519
g262
Ntp2408
Rp2409
(dp2410
g1523
g1536
sg1524
g1537
sg287
S'c:/marmalade/6.3.3beta/s3e/h/std/c++/streambuf.h'
p2411
sbsS'IwGeomFPlane.h'
p2412
g260
(g1519
g262
Ntp2413
Rp2414
(dp2415
g1523
g1247
sg1524
g1546
sg287
g1287
sbsS'forwards.h'
p2416
g260
(g1519
g262
Ntp2417
Rp2418
(dp2419
g1523
g903
sg1524
g1731
sg287
g969
sbsS'wchar.h'
p2420
g260
(g1519
g262
Ntp2421
Rp2422
(dp2423
g1523
g1536
sg1524
g1558
sg287
S'c:/marmalade/6.3.3beta/s3e/h/std/wchar.h'
p2424
sbsS's3eCameraCapture.h'
p2425
g260
(g1519
g262
Ntp2426
Rp2427
(dp2428
g1523
g1536
sg1524
g1789
sg287
S'c:/marmalade/6.3.3beta/s3e/h/ext/s3eCameraCapture.h'
p2429
sbsS'eglext.h'
p2430
g260
(g1519
g262
Ntp2431
Rp2432
(dp2433
g1523
g1536
sg1524
g1905
sg287
S'c:/marmalade/6.3.3beta/s3e/h/EGL/eglext.h'
p2434
sbsS'IwResHandlerImage.h'
p2435
g260
(g1519
g262
Ntp2436
Rp2437
(dp2438
g1523
g1315
sg1524
g1830
sg287
g1322
sbsS'scrolling_background.cpp'
p2439
g260
(g1519
g262
Ntp2440
Rp2441
(dp2442
g1523
g1066
sg1524
g1712
sg287
g1141
sbsS'spine.h'
p2443
g260
(g1519
g262
Ntp2444
Rp2445
(dp2446
g1523
g903
sg1524
g1635
sg287
g987
sbsS'tiniconv.h'
p2447
g260
(g1519
g262
Ntp2448
Rp2449
(dp2450
g1523
g1056
sg1524
g2061
sg287
g1060
sbsS'IwGLExt.h'
p2451
g260
(g1519
g262
Ntp2452
Rp2453
(dp2454
g1523
g1201
sg1524
g1657
sg287
g1199
sbsS'BaseSkeleton.h'
p2455
g260
(g1519
g262
Ntp2456
Rp2457
(dp2458
g1523
g903
sg1524
g1531
sg287
g928
sbsS'opponent_car.cpp'
p2459
g260
(g1519
g262
Ntp2460
Rp2461
(dp2462
g1523
g1066
sg1524
g1712
sg287
g1151
sbsS'app.icf'
p2463
g260
(g1519
g262
Ntp2464
Rp2465
(dp2466
g1523
(dp2467
sg1524
g4
sg287
S'c:/Users/Bilal/Repositories/GameJam2/data/app.icf'
p2468
sbsS'IwClassFactory.h'
p2469
g260
(g1519
g262
Ntp2470
Rp2471
(dp2472
g1523
g1393
sg1524
g1565
sg287
g1413
sbsS'AwmSoundManager.cpp'
p2473
g260
(g1519
g262
Ntp2474
Rp2475
(dp2476
g1523
g1066
sg1524
g1925
sg287
g1177
sbsS'file.h'
p2477
g260
(g1519
g262
Ntp2478
Rp2479
(dp2480
g1523
g1536
sg1524
g1699
sg287
S'c:/marmalade/6.3.3beta/s3e/h/std/sys/file.h'
p2481
sbsS'cstring'
p2482
g260
(g1519
g262
Ntp2483
Rp2484
(dp2485
g1523
g1536
sg1524
g1537
sg287
S'c:/marmalade/6.3.3beta/s3e/h/std/c++/cstring'
p2486
sbsS'IwSoundInst.cpp'
p2487
g260
(g1519
g262
Ntp2488
Rp2489
(dp2490
g1523
g1077
sg1524
g1586
sg287
g1117
sbsS'iwutil.config.txt'
p2491
g260
(g1519
g262
Ntp2492
Rp2493
(dp2494
g1523
g1393
sg1524
g1565
sg287
g1491
sbsS's3eSMS.h'
p2495
g260
(g1519
g262
Ntp2496
Rp2497
(dp2498
g1523
g1536
sg1524
g1789
sg287
S'c:/marmalade/6.3.3beta/s3e/h/ext/s3eSMS.h'
p2499
sbsS'limits.h'
p2500
g260
(g1519
g262
Ntp2501
Rp2502
(dp2503
g1523
g1536
sg1524
g1558
sg287
S'c:/marmalade/6.3.3beta/s3e/h/std/limits.h'
p2504
sbsS'iwgl.config.txt'
p2505
g260
(g1519
g262
Ntp2506
Rp2507
(dp2508
g1523
g1201
sg1524
g1657
sg287
g1207
sbsS'iwgx_public.defines.txt'
p2509
g260
(g1519
g262
Ntp2510
Rp2511
(dp2512
g1523
g1339
sg1524
g1681
sg287
g1357
sbsS'IwMaterial.h'
p2513
g260
(g1519
g262
Ntp2514
Rp2515
(dp2516
g1523
g1339
sg1524
g1681
sg287
g1379
sbsS'IwGxSurface.h'
p2517
g260
(g1519
g262
Ntp2518
Rp2519
(dp2520
g1523
g1339
sg1524
g1681
sg287
g1359
sbsS's3eSocket.h'
p2521
g260
(g1519
g262
Ntp2522
Rp2523
(dp2524
g1523
g1536
sg1524
g1552
sg287
S'c:/marmalade/6.3.3beta/s3e/h/s3eSocket.h'
p2525
sbsS'IwAutoFile.h'
p2526
g260
(g1519
g262
Ntp2527
Rp2528
(dp2529
g1523
g1393
sg1524
g1565
sg287
g1483
sbsS'ipc.h'
p2530
g260
(g1519
g262
Ntp2531
Rp2532
(dp2533
g1523
g1536
sg1524
g1699
sg287
S'c:/marmalade/6.3.3beta/s3e/h/std/sys/ipc.h'
p2534
sbsS'poll_1.h'
p2535
g260
(g1519
g262
Ntp2536
Rp2537
(dp2538
g1523
g1536
sg1524
g1699
sg287
S'c:/marmalade/6.3.3beta/s3e/h/std/sys/poll.h'
p2539
sbsS's3eThread.h'
p2540
g260
(g1519
g262
Ntp2541
Rp2542
(dp2543
g1523
g1536
sg1524
g1552
sg287
S'c:/marmalade/6.3.3beta/s3e/h/s3eThread.h'
p2544
sbsS'ucontext.h'
p2545
g260
(g1519
g262
Ntp2546
Rp2547
(dp2548
g1523
g1536
sg1524
g1558
sg287
S'c:/marmalade/6.3.3beta/s3e/h/std/ucontext.h'
p2549
sbsS'time.h'
p2550
g260
(g1519
g262
Ntp2551
Rp2552
(dp2553
g1523
g1536
sg1524
g1558
sg287
S'c:/marmalade/6.3.3beta/s3e/h/std/time.h'
p2554
sbsS'jchuff.h'
p2555
g260
(g1519
g262
Ntp2556
Rp2557
(dp2558
g1523
g1022
sg1524
g1619
sg287
g1035
sbsS'IwSoundPCM.cpp'
p2559
g260
(g1519
g262
Ntp2560
Rp2561
(dp2562
g1523
g1077
sg1524
g1586
sg287
g1090
sbsS'fnmatch.h'
p2563
g260
(g1519
g262
Ntp2564
Rp2565
(dp2566
g1523
g1536
sg1524
g1558
sg287
S'c:/marmalade/6.3.3beta/s3e/h/std/fnmatch.h'
p2567
sbsS'IwFibre.h'
p2568
g260
(g1519
g262
Ntp2569
Rp2570
(dp2571
g1523
g1393
sg1524
g1565
sg287
g1467
sbsS's3eVersion.h'
p2572
g260
(g1519
g262
Ntp2573
Rp2574
(dp2575
g1523
g1536
sg1524
g1552
sg287
S'c:/marmalade/6.3.3beta/s3e/h/s3eVersion.h'
p2576
sbsS'IwSoundGroup.h'
p2577
g260
(g1519
g262
Ntp2578
Rp2579
(dp2580
g1523
g1077
sg1524
g1586
sg287
g1104
sbsS'IwGxFontGlyph.h'
p2581
g260
(g1519
g262
Ntp2582
Rp2583
(dp2584
g1523
g1228
sg1524
g1525
sg287
g1239
sbsS's3eTypes.h'
p2585
g260
(g1519
g262
Ntp2586
Rp2587
(dp2588
g1523
g1536
sg1524
g1552
sg287
S'c:/marmalade/6.3.3beta/s3e/h/s3eTypes.h'
p2589
sbsS'IwSoundSpec.h'
p2590
g260
(g1519
g262
Ntp2591
Rp2592
(dp2593
g1523
g1077
sg1524
g1586
sg287
g1100
sbsS'signal_2.h'
p2594
g260
(g1519
g262
Ntp2595
Rp2596
(dp2597
g1523
g1536
sg1524
g1537
sg287
S'c:/marmalade/6.3.3beta/s3e/h/std/c++/signal.h'
p2598
sbsS'termios.h'
p2599
g260
(g1519
g262
Ntp2600
Rp2601
(dp2602
g1523
g1536
sg1524
g1558
sg287
S'c:/marmalade/6.3.3beta/s3e/h/std/termios.h'
p2603
sbsS'observer.cpp'
p2604
g260
(g1519
g262
Ntp2605
Rp2606
(dp2607
g1523
g1066
sg1524
g1712
sg287
g1157
sbsS'slist'
p2608
g260
(g1519
g262
Ntp2609
Rp2610
(dp2611
g1523
g1536
sg1524
g1537
sg287
S'c:/marmalade/6.3.3beta/s3e/h/std/c++/slist'
p2612
sbsS'cstdlib'
p2613
g260
(g1519
g262
Ntp2614
Rp2615
(dp2616
g1523
g1536
sg1524
g1537
sg287
S'c:/marmalade/6.3.3beta/s3e/h/std/c++/cstdlib'
p2617
sbsS's3eLocation.h'
p2618
g260
(g1519
g262
Ntp2619
Rp2620
(dp2621
g1523
g1536
sg1524
g1552
sg287
S'c:/marmalade/6.3.3beta/s3e/h/s3eLocation.h'
p2622
sbsS'AwmInput.cpp'
p2623
g260
(g1519
g262
Ntp2624
Rp2625
(dp2626
g1523
g1066
sg1524
g1925
sg287
g1175
sbsS'IwMemBucketHelpers.h'
p2627
g260
(g1519
g262
Ntp2628
Rp2629
(dp2630
g1523
g1393
sg1524
g1565
sg287
g1415
sbsS's3eHash.h'
p2631
g260
(g1519
g262
Ntp2632
Rp2633
(dp2634
g1523
g1536
sg1524
g1552
sg287
S'c:/marmalade/6.3.3beta/s3e/h/s3eHash.h'
p2635
sbsS'IwSoundGroup.cpp'
p2636
g260
(g1519
g262
Ntp2637
Rp2638
(dp2639
g1523
g1077
sg1524
g1586
sg287
g1111
sbsS'IwGeomFMat.h'
p2640
g260
(g1519
g262
Ntp2641
Rp2642
(dp2643
g1523
g1247
sg1524
g1546
sg287
g1299
sbsS'type_traits.h'
p2644
g260
(g1519
g262
Ntp2645
Rp2646
(dp2647
g1523
g1536
sg1524
g1537
sg287
S'c:/marmalade/6.3.3beta/s3e/h/std/c++/type_traits.h'
p2648
sbsS'BaseAttachmentLoader.h'
p2649
g260
(g1519
g262
Ntp2650
Rp2651
(dp2652
g1523
g903
sg1524
g1531
sg287
g938
sbsS'IwMenu.h'
p2653
g260
(g1519
g262
Ntp2654
Rp2655
(dp2656
g1523
g1393
sg1524
g1565
sg287
g1489
sbsS'IwResHandlerITX.h'
p2657
g260
(g1519
g262
Ntp2658
Rp2659
(dp2660
g1523
g1315
sg1524
g1830
sg287
g1333
sbsS'IwSoundData.h'
p2661
g260
(g1519
g262
Ntp2662
Rp2663
(dp2664
g1523
g1077
sg1524
g1586
sg287
g1109
sbsS'IwArray.h'
p2665
g260
(g1519
g262
Ntp2666
Rp2667
(dp2668
g1523
g1393
sg1524
g1565
sg287
g1443
sbsS'IwUTF8.h'
p2669
g260
(g1519
g262
Ntp2670
Rp2671
(dp2672
g1523
g1393
sg1524
g1565
sg287
g1425
sbsS'math_rvct.h'
p2673
g260
(g1519
g262
Ntp2674
Rp2675
(dp2676
g1523
g1536
sg1524
g1558
sg287
S'c:/marmalade/6.3.3beta/s3e/h/std/math_rvct.h'
p2677
sbsS'IwUtil.h'
p2678
g260
(g1519
g262
Ntp2679
Rp2680
(dp2681
g1523
g1393
sg1524
g1565
sg287
g1391
sbsS'IwFColour.h'
p2682
g260
(g1519
g262
Ntp2683
Rp2684
(dp2685
g1523
g1339
sg1524
g1681
sg287
g1340
sbsS'wctype.h'
p2686
g260
(g1519
g262
Ntp2687
Rp2688
(dp2689
g1523
g1536
sg1524
g1558
sg287
S'c:/marmalade/6.3.3beta/s3e/h/std/wctype.h'
p2690
sbsS'arcade.cpp'
p2691
g260
(g1519
g262
Ntp2692
Rp2693
(dp2694
g1523
g1066
sg1524
g1712
sg287
g1139
sbsS'structures.h'
p2695
g260
(g1519
g262
Ntp2696
Rp2697
(dp2698
g1523
g1066
sg1524
g1994
sg287
g1069
sbsS'assert.h'
p2699
g260
(g1519
g262
Ntp2700
Rp2701
(dp2702
g1523
g1536
sg1524
g1558
sg287
S'c:/marmalade/6.3.3beta/s3e/h/std/assert.h'
p2703
sbsS'Skin.h'
p2704
g260
(g1519
g262
Ntp2705
Rp2706
(dp2707
g1523
g903
sg1524
g1531
sg287
g916
sbsS'opponent_car.h'
p2708
g260
(g1519
g262
Ntp2709
Rp2710
(dp2711
g1523
g1066
sg1524
g1712
sg287
g1159
sbsS'mman.h'
p2712
g260
(g1519
g262
Ntp2713
Rp2714
(dp2715
g1523
g1536
sg1524
g1699
sg287
S'c:/marmalade/6.3.3beta/s3e/h/std/sys/mman.h'
p2716
sbsS'IwRandom.h'
p2717
g260
(g1519
g262
Ntp2718
Rp2719
(dp2720
g1523
g1393
sg1524
g1565
sg287
g1431
sbsS'libgen.h'
p2721
g260
(g1519
g262
Ntp2722
Rp2723
(dp2724
g1523
g1536
sg1524
g1558
sg287
S'c:/marmalade/6.3.3beta/s3e/h/std/libgen.h'
p2725
sbsS'utsname.h'
p2726
g260
(g1519
g262
Ntp2727
Rp2728
(dp2729
g1523
g1536
sg1524
g1699
sg287
S'c:/marmalade/6.3.3beta/s3e/h/std/sys/utsname.h'
p2730
sbsS'wait.h'
p2731
g260
(g1519
g262
Ntp2732
Rp2733
(dp2734
g1523
g1536
sg1524
g1699
sg287
S'c:/marmalade/6.3.3beta/s3e/h/std/sys/wait.h'
p2735
sbsS'player_car.cpp'
p2736
g260
(g1519
g262
Ntp2737
Rp2738
(dp2739
g1523
g1066
sg1524
g1712
sg287
g1143
sbsS'param.h'
p2740
g260
(g1519
g262
Ntp2741
Rp2742
(dp2743
g1523
g1536
sg1524
g1699
sg287
S'c:/marmalade/6.3.3beta/s3e/h/std/sys/param.h'
p2744
sbsS'BaseRegionAttachment.h'
p2745
g260
(g1519
g262
Ntp2746
Rp2747
(dp2748
g1523
g903
sg1524
g1531
sg287
g922
sbsS'IwDivide.h'
p2749
g260
(g1519
g262
Ntp2750
Rp2751
(dp2752
g1523
g1393
sg1524
g1565
sg287
g1406
sbsS'Iw2DSprite.h'
p2753
g260
(g1519
g262
Ntp2754
Rp2755
(dp2756
g1523
g1066
sg1524
g1712
sg287
g1131
sbsS'IwResManager.h'
p2757
g260
(g1519
g262
Ntp2758
Rp2759
(dp2760
g1523
g1315
sg1524
g1830
sg287
g1329
sbsS'IwSoundManager.h'
p2761
g260
(g1519
g262
Ntp2762
Rp2763
(dp2764
g1523
g1077
sg1524
g1586
sg287
g1078
sbsS'cwctype'
p2765
g260
(g1519
g262
Ntp2766
Rp2767
(dp2768
g1523
g1536
sg1524
g1537
sg287
S'c:/marmalade/6.3.3beta/s3e/h/std/c++/cwctype'
p2769
sbsS's3ePointer.h'
p2770
g260
(g1519
g262
Ntp2771
Rp2772
(dp2773
g1523
g1536
sg1524
g1552
sg287
S'c:/marmalade/6.3.3beta/s3e/h/s3ePointer.h'
p2774
sbsS'set'
p2775
g260
(g1519
g262
Ntp2776
Rp2777
(dp2778
g1523
g1536
sg1524
g1537
sg287
S'c:/marmalade/6.3.3beta/s3e/h/std/c++/set'
p2779
sbsS'IwGeomSQuat.h'
p2780
g260
(g1519
g262
Ntp2781
Rp2782
(dp2783
g1523
g1247
sg1524
g1546
sg287
g1273
sbsS'locale'
p2784
g260
(g1519
g262
Ntp2785
Rp2786
(dp2787
g1523
g1536
sg1524
g1537
sg287
S'c:/marmalade/6.3.3beta/s3e/h/std/c++/locale'
p2788
sbsS'IwVariableBitField.h'
p2789
g260
(g1519
g262
Ntp2790
Rp2791
(dp2792
g1523
g1393
sg1524
g1565
sg287
g1469
sbsS'cstdio'
p2793
g260
(g1519
g262
Ntp2794
Rp2795
(dp2796
g1523
g1536
sg1524
g1537
sg287
S'c:/marmalade/6.3.3beta/s3e/h/std/c++/cstdio'
p2797
sbsS'cdjpeg.h'
p2798
g260
(g1519
g262
Ntp2799
Rp2800
(dp2801
g1523
g1022
sg1524
g1619
sg287
g1031
sbsS'IwList.h'
p2802
g260
(g1519
g262
Ntp2803
Rp2804
(dp2805
g1523
g1393
sg1524
g1565
sg287
g1465
sbsS'inttypes.h'
p2806
g260
(g1519
g262
Ntp2807
Rp2808
(dp2809
g1523
g1536
sg1524
g1558
sg287
S'c:/marmalade/6.3.3beta/s3e/h/std/inttypes.h'
p2810
sbsS'dirent.h'
p2811
g260
(g1519
g262
Ntp2812
Rp2813
(dp2814
g1523
g1536
sg1524
g1558
sg287
S'c:/marmalade/6.3.3beta/s3e/h/std/dirent.h'
p2815
sbsS'IwGeomVec3.h'
p2816
g260
(g1519
g262
Ntp2817
Rp2818
(dp2819
g1523
g1247
sg1524
g1546
sg287
g1309
sbsS'transupp.h'
p2820
g260
(g1519
g262
Ntp2821
Rp2822
(dp2823
g1523
g1022
sg1524
g1619
sg287
g1041
sbsS'IwMath.h'
p2824
g260
(g1519
g262
Ntp2825
Rp2826
(dp2827
g1523
g1393
sg1524
g1565
sg287
g1453
sbsS'IwGeomQuat.h'
p2828
g260
(g1519
g262
Ntp2829
Rp2830
(dp2831
g1523
g1247
sg1524
g1546
sg287
g1293
sbsS'glplatform.h'
p2832
g260
(g1519
g262
Ntp2833
Rp2834
(dp2835
g1523
g1536
sg1524
g1913
sg287
S'c:/marmalade/6.3.3beta/s3e/h/GLES/glplatform.h'
p2836
sbsS'bitset'
p2837
g260
(g1519
g262
Ntp2838
Rp2839
(dp2840
g1523
g1536
sg1524
g1537
sg287
S'c:/marmalade/6.3.3beta/s3e/h/std/c++/bitset'
p2841
sbsS'alloca.h'
p2842
g260
(g1519
g262
Ntp2843
Rp2844
(dp2845
g1523
g1536
sg1524
g1558
sg287
S'c:/marmalade/6.3.3beta/s3e/h/std/alloca.h'
p2846
sbsS'reader.h'
p2847
g260
(g1519
g262
Ntp2848
Rp2849
(dp2850
g1523
g903
sg1524
g1731
sg287
g953
sbsS'IwResHandler.h'
p2851
g260
(g1519
g262
Ntp2852
Rp2853
(dp2854
g1523
g1315
sg1524
g1830
sg287
g1318
sbsS'IwResHandlerMTL.h'
p2855
g260
(g1519
g262
Ntp2856
Rp2857
(dp2858
g1523
g1339
sg1524
g1681
sg287
g1348
sbsS'IwRuntime.h'
p2859
g260
(g1519
g262
Ntp2860
Rp2861
(dp2862
g1523
g1393
sg1524
g1565
sg287
g1423
sbsS'limits'
p2863
g260
(g1519
g262
Ntp2864
Rp2865
(dp2866
g1523
g1536
sg1524
g1537
sg287
S'c:/marmalade/6.3.3beta/s3e/h/std/c++/limits'
p2867
sbsS'IwGeomBBox.h'
p2868
g260
(g1519
g262
Ntp2869
Rp2870
(dp2871
g1523
g1247
sg1524
g1546
sg287
g1277
sbsS's3eContacts.h'
p2872
g260
(g1519
g262
Ntp2873
Rp2874
(dp2875
g1523
g1536
sg1524
g1552
sg287
S'c:/marmalade/6.3.3beta/s3e/h/s3eContacts.h'
p2876
sbsS's3eLicense.h'
p2877
g260
(g1519
g262
Ntp2878
Rp2879
(dp2880
g1523
g1536
sg1524
g1552
sg287
S'c:/marmalade/6.3.3beta/s3e/h/s3eLicense.h'
p2881
sbsS'iwgx.config.txt'
p2882
g260
(g1519
g262
Ntp2883
Rp2884
(dp2885
g1523
g1339
sg1524
g1681
sg287
g1369
sbsS'IwTextParser.h'
p2886
g260
(g1519
g262
Ntp2887
Rp2888
(dp2889
g1523
g1393
sg1524
g1565
sg287
g1421
sbsS's3eTimer.h'
p2890
g260
(g1519
g262
Ntp2891
Rp2892
(dp2893
g1523
g1536
sg1524
g1552
sg287
S'c:/marmalade/6.3.3beta/s3e/h/s3eTimer.h'
p2894
sbsS'IwGeomVec.h'
p2895
g260
(g1519
g262
Ntp2896
Rp2897
(dp2898
g1523
g1247
sg1524
g1546
sg287
g1303
sbsS'IwSerialise.h'
p2899
g260
(g1519
g262
Ntp2900
Rp2901
(dp2902
g1523
g1393
sg1524
g1565
sg287
g1433
sbsS'cstdarg'
p2903
g260
(g1519
g262
Ntp2904
Rp2905
(dp2906
g1523
g1536
sg1524
g1537
sg287
S'c:/marmalade/6.3.3beta/s3e/h/std/c++/cstdarg'
p2907
sbsS'json_internalarray.inl'
p2908
g260
(g1519
g262
Ntp2909
Rp2910
(dp2911
g1523
g903
sg1524
g1731
sg287
g975
sbsS'gl2ext.h'
p2912
g260
(g1519
g262
Ntp2913
Rp2914
(dp2915
g1523
g1536
sg1524
g1822
sg287
S'c:/marmalade/6.3.3beta/s3e/h/GLES2/gl2ext.h'
p2916
sbsS'IwChar.h'
p2917
g260
(g1519
g262
Ntp2918
Rp2919
(dp2920
g1523
g1393
sg1524
g1565
sg287
g1481
sbsS's3eSound.h'
p2921
g260
(g1519
g262
Ntp2922
Rp2923
(dp2924
g1523
g1536
sg1524
g1552
sg287
S'c:/marmalade/6.3.3beta/s3e/h/s3eSound.h'
p2925
sbsS'value.h'
p2926
g260
(g1519
g262
Ntp2927
Rp2928
(dp2929
g1523
g903
sg1524
g1731
sg287
g973
sbsS'IwOptimiseThumb.h'
p2930
g260
(g1519
g262
Ntp2931
Rp2932
(dp2933
g1523
g1393
sg1524
g1565
sg287
g1445
sbsS'player_car.h'
p2934
g260
(g1519
g262
Ntp2935
Rp2936
(dp2937
g1523
g1066
sg1524
g1712
sg287
g1163
sbsS'iwgeom.config.txt'
p2938
g260
(g1519
g262
Ntp2939
Rp2940
(dp2941
g1523
g1247
sg1524
g1546
sg287
g1289
sbsS'iwgx.mkf'
p2942
g260
(g1519
g262
Ntp2943
Rp2944
(dp2945
g1523
g1354
sg1524
g1681
sg287
g1352
sbsS'gl.h'
p2946
g260
(g1519
g262
Ntp2947
Rp2948
(dp2949
g1523
g1536
sg1524
g1913
sg287
S'c:/marmalade/6.3.3beta/s3e/h/GLES/gl.h'
p2950
sbsS'zlib.h'
p2951
g260
(g1519
g262
Ntp2952
Rp2953
(dp2954
g1523
g1498
sg1524
g2305
sg287
g1499
sbsS'Iw2DSprite.cpp'
p2955
g260
(g1519
g262
Ntp2956
Rp2957
(dp2958
g1523
g1066
sg1524
g1712
sg287
g1161
sbsS'iwgl.mkf'
p2959
g260
(g1519
g262
Ntp2960
Rp2961
(dp2962
g1523
g1204
sg1524
g1657
sg287
g1202
sbsS'IwColour.h'
p2963
g260
(g1519
g262
Ntp2964
Rp2965
(dp2966
g1523
g1339
sg1524
g1681
sg287
g1344
sbsS'types.h'
p2967
g260
(g1519
g262
Ntp2968
Rp2969
(dp2970
g1523
g1536
sg1524
g1699
sg287
S'c:/marmalade/6.3.3beta/s3e/h/std/sys/types.h'
p2971
sbsS'ifaddrs.h'
p2972
g260
(g1519
g262
Ntp2973
Rp2974
(dp2975
g1523
g1536
sg1524
g1558
sg287
S'c:/marmalade/6.3.3beta/s3e/h/std/ifaddrs.h'
p2976
sbsS'strstream'
p2977
g260
(g1519
g262
Ntp2978
Rp2979
(dp2980
g1523
g1536
sg1524
g1537
sg287
S'c:/marmalade/6.3.3beta/s3e/h/std/c++/strstream'
p2981
sbsS'exception'
p2982
g260
(g1519
g262
Ntp2983
Rp2984
(dp2985
g1523
g1536
sg1524
g1537
sg287
S'c:/marmalade/6.3.3beta/s3e/h/std/c++/exception'
p2986
sbsS's3eSoundRecord.h'
p2987
g260
(g1519
g262
Ntp2988
Rp2989
(dp2990
g1523
g1536
sg1524
g1552
sg287
S'c:/marmalade/6.3.3beta/s3e/h/s3eSoundRecord.h'
p2991
sbsS'rlocks.h'
p2992
g260
(g1519
g262
Ntp2993
Rp2994
(dp2995
g1523
g1536
sg1524
g1537
sg287
S'c:/marmalade/6.3.3beta/s3e/h/std/c++/rlocks.h'
p2996
sbsS'ioctl.h'
p2997
g260
(g1519
g262
Ntp2998
Rp2999
(dp3000
g1523
g1536
sg1524
g1699
sg287
S'c:/marmalade/6.3.3beta/s3e/h/std/sys/ioctl.h'
p3001
sbsS'rope'
p3002
g260
(g1519
g262
Ntp3003
Rp3004
(dp3005
g1523
g1536
sg1524
g1537
sg287
S'c:/marmalade/6.3.3beta/s3e/h/std/c++/rope'
p3006
sbsVsqlite.mkf
p3007
g260
(g1519
g262
Ntp3008
Rp3009
(dp3010
g1523
g1508
sg1524
g1939
sg287
g1506
sbsS'IwEvent.h'
p3011
g260
(g1519
g262
Ntp3012
Rp3013
(dp3014
g1523
g1393
sg1524
g1565
sg287
g1451
sbsS'RegionAttachment.cpp'
p3015
g260
(g1519
g262
Ntp3016
Rp3017
(dp3018
g1523
g903
sg1524
g1635
sg287
g999
sbsS'IwOptimiseSize.h'
p3019
g260
(g1519
g262
Ntp3020
Rp3021
(dp3022
g1523
g1393
sg1524
g1565
sg287
g1463
sbsS'iwgxfont_public.defines.txt'
p3023
g260
(g1519
g262
Ntp3024
Rp3025
(dp3026
g1523
g1228
sg1524
g1525
sg287
g1226
sbsS'iconv.h'
p3027
g260
(g1519
g262
Ntp3028
Rp3029
(dp3030
g1523
g1536
sg1524
g1558
sg287
S'c:/marmalade/6.3.3beta/s3e/h/std/iconv.h'
p3031
sbsS's3eDevice.h'
p3032
g260
(g1519
g262
Ntp3033
Rp3034
(dp3035
g1523
g1536
sg1524
g1552
sg287
S'c:/marmalade/6.3.3beta/s3e/h/s3eDevice.h'
p3036
sbsS'IwGeomSphere.h'
p3037
g260
(g1519
g262
Ntp3038
Rp3039
(dp3040
g1523
g1247
sg1524
g1546
sg287
g1275
sbsS'tiniconv.mkf'
p3041
g260
(g1519
g262
Ntp3042
Rp3043
(dp3044
g1523
g1059
sg1524
g2061
sg287
g1057
sbsS'SkeletonData.h'
p3045
g260
(g1519
g262
Ntp3046
Rp3047
(dp3048
g1523
g903
sg1524
g1531
sg287
g901
sbsS'jdct.h'
p3049
g260
(g1519
g262
Ntp3050
Rp3051
(dp3052
g1523
g1022
sg1524
g1619
sg287
g1033
sbsS'cctype'
p3053
g260
(g1519
g262
Ntp3054
Rp3055
(dp3056
g1523
g1536
sg1524
g1537
sg287
S'c:/marmalade/6.3.3beta/s3e/h/std/c++/cctype'
p3057
sbsS'IwSoundADPCM.cpp'
p3058
g260
(g1519
g262
Ntp3059
Rp3060
(dp3061
g1523
g1077
sg1524
g1586
sg287
g1080
sbsS's3eConfig.h'
p3062
g260
(g1519
g262
Ntp3063
Rp3064
(dp3065
g1523
g1536
sg1524
g1552
sg287
S'c:/marmalade/6.3.3beta/s3e/h/s3eConfig.h'
p3066
sbsS'IwHashString.h'
p3067
g260
(g1519
g262
Ntp3068
Rp3069
(dp3070
g1523
g1393
sg1524
g1565
sg287
g1435
sbsS'stat.h'
p3071
g260
(g1519
g262
Ntp3072
Rp3073
(dp3074
g1523
g1536
sg1524
g1699
sg287
S'c:/marmalade/6.3.3beta/s3e/h/std/sys/stat.h'
p3075
sbsS'byteswap.h'
p3076
g260
(g1519
g262
Ntp3077
Rp3078
(dp3079
g1523
g1536
sg1524
g1558
sg287
S'c:/marmalade/6.3.3beta/s3e/h/std/byteswap.h'
p3080
sbsS'iwresmanager.mkf'
p3081
g260
(g1519
g262
Ntp3082
Rp3083
(dp3084
g1523
g1326
sg1524
g1830
sg287
g1324
sbsS'IwUtilInitTerm.h'
p3085
g260
(g1519
g262
Ntp3086
Rp3087
(dp3088
g1523
g1393
sg1524
g1565
sg287
g1429
sbsS'pthread_1.h'
p3089
g260
(g1519
g262
Ntp3090
Rp3091
(dp3092
g1523
g1536
sg1524
g1537
sg287
S'c:/marmalade/6.3.3beta/s3e/h/std/c++/pthread.h'
p3093
sbsS'IwMemBucket.h'
p3094
g260
(g1519
g262
Ntp3095
Rp3096
(dp3097
g1523
g1393
sg1524
g1565
sg287
g1459
sbsS'complex'
p3098
g260
(g1519
g262
Ntp3099
Rp3100
(dp3101
g1523
g1536
sg1524
g1537
sg287
S'c:/marmalade/6.3.3beta/s3e/h/std/c++/complex'
p3102
sbsS'game.cpp'
p3103
g260
(g1519
g262
Ntp3104
Rp3105
(dp3106
g1523
g1066
sg1524
g1994
sg287
g1071
sbsS'algorithm'
p3107
g260
(g1519
g262
Ntp3108
Rp3109
(dp3110
g1523
g1536
sg1524
g1537
sg287
S'c:/marmalade/6.3.3beta/s3e/h/std/c++/algorithm'
p3111
sbsS's3e.icf'
p3112
g260
(g1519
g262
Ntp3113
Rp3114
(dp3115
g1523
g1536
sg1524
g1552
sg287
S'c:/marmalade/6.3.3beta/s3e/s3e.icf'
p3116
sbsS'BaseSkeletonJson.cpp'
p3117
g260
(g1519
g262
Ntp3118
Rp3119
(dp3120
g1523
g903
sg1524
g1531
sg287
g904
sbsS'sem.h'
p3121
g260
(g1519
g262
Ntp3122
Rp3123
(dp3124
g1523
g1536
sg1524
g1699
sg287
S'c:/marmalade/6.3.3beta/s3e/h/std/sys/sem.h'
p3125
sbsS'IwGxFontState.h'
p3126
g260
(g1519
g262
Ntp3127
Rp3128
(dp3129
g1523
g1228
sg1524
g1525
sg287
g1235
sbsS'AtlasAttachmentLoader.h'
p3130
g260
(g1519
g262
Ntp3131
Rp3132
(dp3133
g1523
g903
sg1524
g1635
sg287
g993
sbsS'jmemsys.h'
p3134
g260
(g1519
g262
Ntp3135
Rp3136
(dp3137
g1523
g1022
sg1524
g1619
sg287
g1020
sbsS'AwmButton.h'
p3138
g260
(g1519
g262
Ntp3139
Rp3140
(dp3141
g1523
g1066
sg1524
g1925
sg287
g1173
sbsS'stack'
p3142
g260
(g1519
g262
Ntp3143
Rp3144
(dp3145
g1523
g1536
sg1524
g1537
sg287
S'c:/marmalade/6.3.3beta/s3e/h/std/c++/stack'
p3146
sbsS'IwSoundParams.h'
p3147
g260
(g1519
g262
Ntp3148
Rp3149
(dp3150
g1523
g1077
sg1524
g1586
sg287
g1119
sbsS'new.h'
p3151
g260
(g1519
g262
Ntp3152
Rp3153
(dp3154
g1523
g1536
sg1524
g1537
sg287
S'c:/marmalade/6.3.3beta/s3e/h/std/c++/new.h'
p3155
sbsS's3eEMail.h'
p3156
g260
(g1519
g262
Ntp3157
Rp3158
(dp3159
g1523
g1536
sg1524
g1789
sg287
S'c:/marmalade/6.3.3beta/s3e/h/ext/s3eEMail.h'
p3160
sbsS's3eVideo.h'
p3161
g260
(g1519
g262
Ntp3162
Rp3163
(dp3164
g1523
g1536
sg1524
g1552
sg287
S'c:/marmalade/6.3.3beta/s3e/h/s3eVideo.h'
p3165
sbsS'IwFile.h'
p3166
g260
(g1519
g262
Ntp3167
Rp3168
(dp3169
g1523
g1393
sg1524
g1565
sg287
g1402
sbsS'pwd.h'
p3170
g260
(g1519
g262
Ntp3171
Rp3172
(dp3173
g1523
g1536
sg1524
g1558
sg287
S'c:/marmalade/6.3.3beta/s3e/h/std/pwd.h'
p3174
sbsS'IwClip.h'
p3175
g260
(g1519
g262
Ntp3176
Rp3177
(dp3178
g1523
g1339
sg1524
g1681
sg287
g1375
sbsS'IwSoundInst.h'
p3179
g260
(g1519
g262
Ntp3180
Rp3181
(dp3182
g1523
g1077
sg1524
g1586
sg287
g1098
sbsS'MessageBox_interface.cpp'
p3183
g260
(g1519
g262
Ntp3184
Rp3185
(dp3186
g1523
g1187
sg1524
(lp3187
g1179
ag1181
ag1183
asg287
g1188
sbsS'iwresmanager.config.txt'
p3188
g260
(g1519
g262
Ntp3189
Rp3190
(dp3191
g1523
g1315
sg1524
g1830
sg287
g1331
sbsS'IwGxShaderTechnique.h'
p3192
g260
(g1519
g262
Ntp3193
Rp3194
(dp3195
g1523
g1339
sg1524
g1681
sg287
g1346
sbsS'Bone.cpp'
p3196
g260
(g1519
g262
Ntp3197
Rp3198
(dp3199
g1523
g903
sg1524
g1531
sg287
g912
sbsS'IwCore.h'
p3200
g260
(g1519
g262
Ntp3201
Rp3202
(dp3203
g1523
g1393
sg1524
g1565
sg287
g1437
sbsS'cfloat'
p3204
g260
(g1519
g262
Ntp3205
Rp3206
(dp3207
g1523
g1536
sg1524
g1537
sg287
S'c:/marmalade/6.3.3beta/s3e/h/std/c++/cfloat'
p3208
sbsS'IwGeomMat2D.h'
p3209
g260
(g1519
g262
Ntp3210
Rp3211
(dp3212
g1523
g1247
sg1524
g1546
sg287
g1256
sbsS'IwAllocator.h'
p3213
g260
(g1519
g262
Ntp3214
Rp3215
(dp3216
g1523
g1393
sg1524
g1565
sg287
g1417
sbsS'IwPath.h'
p3217
g260
(g1519
g262
Ntp3218
Rp3219
(dp3220
g1523
g1393
sg1524
g1565
sg287
g1475
sbsS'iwgxfont.mkf'
p3221
g260
(g1519
g262
Ntp3222
Rp3223
(dp3224
g1523
g1225
sg1524
g1525
sg287
g1223
sbsS'IwTexture.h'
p3225
g260
(g1519
g262
Ntp3226
Rp3227
(dp3228
g1523
g1339
sg1524
g1681
sg287
g1363
sbsS'BaseRegionAttachment.cpp'
p3229
g260
(g1519
g262
Ntp3230
Rp3231
(dp3232
g1523
g903
sg1524
g1531
sg287
g908
sbsS's3eAccelerometer.h'
p3233
g260
(g1519
g262
Ntp3234
Rp3235
(dp3236
g1523
g1536
sg1524
g1552
sg287
S'c:/marmalade/6.3.3beta/s3e/h/s3eAccelerometer.h'
p3237
sbsS'setjmp.h'
p3238
g260
(g1519
g262
Ntp3239
Rp3240
(dp3241
g1523
g1536
sg1524
g1558
sg287
S'c:/marmalade/6.3.3beta/s3e/h/std/setjmp.h'
p3242
sbsS'json.h'
p3243
g260
(g1519
g262
Ntp3244
Rp3245
(dp3246
g1523
g903
sg1524
g1731
sg287
g951
sbsS'IwSoundParams.cpp'
p3247
g260
(g1519
g262
Ntp3248
Rp3249
(dp3250
g1523
g1077
sg1524
g1586
sg287
g1094
sbsS'menu.cpp'
p3251
g260
(g1519
g262
Ntp3252
Rp3253
(dp3254
g1523
g1066
sg1524
g1712
sg287
g1145
sbsS'pngconf.h'
p3255
g260
(g1519
g262
Ntp3256
Rp3257
(dp3258
g1523
g1011
sg1524
g2383
sg287
g1012
sbsS'IwTextParseable.h'
p3259
g260
(g1519
g262
Ntp3260
Rp3261
(dp3262
g1523
g1393
sg1524
g1565
sg287
g1398
sbsS'istream.h'
p3263
g260
(g1519
g262
Ntp3264
Rp3265
(dp3266
g1523
g1536
sg1524
g1537
sg287
S'c:/marmalade/6.3.3beta/s3e/h/std/c++/istream.h'
p3267
sbsS'Skeleton.h'
p3268
g260
(g1519
g262
Ntp3269
Rp3270
(dp3271
g1523
g903
sg1524
g1635
sg287
g997
sbsS'stdint.h'
p3272
g260
(g1519
g262
Ntp3273
Rp3274
(dp3275
g1523
g1536
sg1524
g1558
sg287
S'c:/marmalade/6.3.3beta/s3e/h/std/stdint.h'
p3276
sbsS'semaphore.h'
p3277
g260
(g1519
g262
Ntp3278
Rp3279
(dp3280
g1523
g1536
sg1524
g1558
sg287
S'c:/marmalade/6.3.3beta/s3e/h/std/semaphore.h'
p3281
sbsS'ctime'
p3282
g260
(g1519
g262
Ntp3283
Rp3284
(dp3285
g1523
g1536
sg1524
g1537
sg287
S'c:/marmalade/6.3.3beta/s3e/h/std/c++/ctime'
p3286
sbsS'SlotData.h'
p3287
g260
(g1519
g262
Ntp3288
Rp3289
(dp3290
g1523
g903
sg1524
g1531
sg287
g932
sbsS'IwGeomFBBox.h'
p3291
g260
(g1519
g262
Ntp3292
Rp3293
(dp3294
g1523
g1247
sg1524
g1546
sg287
g1281
sbsS'IwDebugPrim.h'
p3295
g260
(g1519
g262
Ntp3296
Rp3297
(dp3298
g1523
g1339
sg1524
g1681
sg287
g1342
sbsS'sstream'
p3299
g260
(g1519
g262
Ntp3300
Rp3301
(dp3302
g1523
g1536
sg1524
g1537
sg287
S'c:/marmalade/6.3.3beta/s3e/h/std/c++/sstream'
p3303
sbsS'IwGxFontContainer.h'
p3304
g260
(g1519
g262
Ntp3305
Rp3306
(dp3307
g1523
g1228
sg1524
g1525
sg287
g1229
sbsS'IwGeomSVec3.h'
p3308
g260
(g1519
g262
Ntp3309
Rp3310
(dp3311
g1523
g1247
sg1524
g1546
sg287
g1301
sbsS'json_batchallocator.h'
p3312
g260
(g1519
g262
Ntp3313
Rp3314
(dp3315
g1523
g903
sg1524
g1731
sg287
g979
sbsS'json_valueiterator.inl'
p3316
g260
(g1519
g262
Ntp3317
Rp3318
(dp3319
g1523
g903
sg1524
g1731
sg287
g971
sbsS'SkeletonData.cpp'
p3320
g260
(g1519
g262
Ntp3321
Rp3322
(dp3323
g1523
g903
sg1524
g1531
sg287
g936
sbsS's3eExt.h'
p3324
g260
(g1519
g262
Ntp3325
Rp3326
(dp3327
g1523
g1536
sg1524
g1552
sg287
S'c:/marmalade/6.3.3beta/s3e/h/s3eExt.h'
p3328
sbsS'IwGeomFVec3.h'
p3329
g260
(g1519
g262
Ntp3330
Rp3331
(dp3332
g1523
g1247
sg1524
g1546
sg287
g1264
sbsS'BaseSkeleton.cpp'
p3333
g260
(g1519
g262
Ntp3334
Rp3335
(dp3336
g1523
g903
sg1524
g1531
sg287
g910
sbsS'streambuf'
p3337
g260
(g1519
g262
Ntp3338
Rp3339
(dp3340
g1523
g1536
sg1524
g1537
sg287
S'c:/marmalade/6.3.3beta/s3e/h/std/c++/streambuf'
p3341
sbsS's3eMetrics.h'
p3342
g260
(g1519
g262
Ntp3343
Rp3344
(dp3345
g1523
g1536
sg1524
g1789
sg287
S'c:/marmalade/6.3.3beta/s3e/h/ext/s3eMetrics.h'
p3346
sbsS'IwGxFont.h'
p3347
g260
(g1519
g262
Ntp3348
Rp3349
(dp3350
g1523
g1228
sg1524
g1525
sg287
g1233
sbsS's3eSecureStorage.h'
p3351
g260
(g1519
g262
Ntp3352
Rp3353
(dp3354
g1523
g1536
sg1524
g1552
sg287
S'c:/marmalade/6.3.3beta/s3e/h/s3eSecureStorage.h'
p3355
sbsS'string.h'
p3356
g260
(g1519
g262
Ntp3357
Rp3358
(dp3359
g1523
g1536
sg1524
g1558
sg287
S'c:/marmalade/6.3.3beta/s3e/h/std/string.h'
p3360
sbsS'IwResource.h'
p3361
g260
(g1519
g262
Ntp3362
Rp3363
(dp3364
g1523
g1393
sg1524
g1565
sg287
g1394
sbsS'libjpeg.mkf'
p3365
g260
(g1519
g262
Ntp3366
Rp3367
(dp3368
g1523
g1051
sg1524
(lp3369
g1017
asg287
g1049
sbsS'IwGxDebug.h'
p3370
g260
(g1519
g262
Ntp3371
Rp3372
(dp3373
g1523
g1339
sg1524
g1681
sg287
g1387
sbsS'config.h'
p3374
g260
(g1519
g262
Ntp3375
Rp3376
(dp3377
g1523
g903
sg1524
g1731
sg287
g955
sbsS'float.h'
p3378
g260
(g1519
g262
Ntp3379
Rp3380
(dp3381
g1523
g1536
sg1524
g1558
sg287
S'c:/marmalade/6.3.3beta/s3e/h/std/float.h'
p3382
sbsS'iomanip.h'
p3383
g260
(g1519
g262
Ntp3384
Rp3385
(dp3386
g1523
g1536
sg1524
g1537
sg287
S'c:/marmalade/6.3.3beta/s3e/h/std/c++/iomanip.h'
p3387
sbsS'IwKeymap.h'
p3388
g260
(g1519
g262
Ntp3389
Rp3390
(dp3391
g1523
g1393
sg1524
g1565
sg287
g1441
sbsS'IwDebug.h'
p3392
g260
(g1519
g262
Ntp3393
Rp3394
(dp3395
g1523
g1393
sg1524
g1565
sg287
g1404
sbsS's3eIOSBackgroundAudio.h'
p3396
g260
(g1519
g262
Ntp3397
Rp3398
(dp3399
g1523
g1536
sg1524
g1789
sg287
S'c:/marmalade/6.3.3beta/s3e/h/ext/s3eIOSBackgroundAudio.h'
p3400
sbsS'IwGeomMenu.h'
p3401
g260
(g1519
g262
Ntp3402
Rp3403
(dp3404
g1523
g1247
sg1524
g1546
sg287
g1262
sbsS'AwmSoundManager.h'
p3405
g260
(g1519
g262
Ntp3406
Rp3407
(dp3408
g1523
g1066
sg1524
g1925
sg287
g1167
sbsS'my_game.h'
p3409
g260
(g1519
g262
Ntp3410
Rp3411
(dp3412
g1523
g1066
sg1524
g1712
sg287
g1127
sbsS'IwDivTable.h'
p3413
g260
(g1519
g262
Ntp3414
Rp3415
(dp3416
g1523
g1393
sg1524
g1565
sg287
g1471
sbsS'ctype.h'
p3417
g260
(g1519
g262
Ntp3418
Rp3419
(dp3420
g1523
g1536
sg1524
g1558
sg287
S'c:/marmalade/6.3.3beta/s3e/h/std/ctype.h'
p3421
sbsS'IwGeomMat.h'
p3422
g260
(g1519
g262
Ntp3423
Rp3424
(dp3425
g1523
g1247
sg1524
g1546
sg287
g1295
sbsS'Atlas.h'
p3426
g260
(g1519
g262
Ntp3427
Rp3428
(dp3429
g1523
g903
sg1524
g1635
sg287
g1003
sbsS'IwResGroup.h'
p3430
g260
(g1519
g262
Ntp3431
Rp3432
(dp3433
g1523
g1315
sg1524
g1830
sg287
g1320
sbsS'signal_1.h'
p3434
g260
(g1519
g262
Ntp3435
Rp3436
(dp3437
g1523
g1536
sg1524
g1699
sg287
S'c:/marmalade/6.3.3beta/s3e/h/std/sys/signal.h'
p3438
sbsS'arcade.h'
p3439
g260
(g1519
g262
Ntp3440
Rp3441
(dp3442
g1523
g1066
sg1524
g1712
sg287
g1137
sbsS'IwSoundData.cpp'
p3443
g260
(g1519
g262
Ntp3444
Rp3445
(dp3446
g1523
g1077
sg1524
g1586
sg287
g1096
sbsS'jerror.h'
p3447
g260
(g1519
g262
Ntp3448
Rp3449
(dp3450
g1523
g1022
sg1524
g1619
sg287
g1037
sbsS'shm.h'
p3451
g260
(g1519
g262
Ntp3452
Rp3453
(dp3454
g1523
g1536
sg1524
g1699
sg287
S'c:/marmalade/6.3.3beta/s3e/h/std/sys/shm.h'
p3455
sbsS'jpegint.h'
p3456
g260
(g1519
g262
Ntp3457
Rp3458
(dp3459
g1523
g1022
sg1524
g1619
sg287
g1023
sbsS'exception.h'
p3460
g260
(g1519
g262
Ntp3461
Rp3462
(dp3463
g1523
g1536
sg1524
g1537
sg287
S'c:/marmalade/6.3.3beta/s3e/h/std/c++/exception.h'
p3464
sbsS'my_game.cpp'
p3465
g260
(g1519
g262
Ntp3466
Rp3467
(dp3468
g1523
g1066
sg1524
g1712
sg287
g1135
sbsS'IwGxStream.h'
p3469
g260
(g1519
g262
Ntp3470
Rp3471
(dp3472
g1523
g1339
sg1524
g1681
sg287
g1377
sbsS'utility'
p3473
g260
(g1519
g262
Ntp3474
Rp3475
(dp3476
g1523
g1536
sg1524
g1537
sg287
S'c:/marmalade/6.3.3beta/s3e/h/std/c++/utility'
p3477
sbsS'json_value.cpp'
p3478
g260
(g1519
g262
Ntp3479
Rp3480
(dp3481
g1523
g903
sg1524
g1731
sg287
g977
sbsS'IwGeomLegacy.h'
p3482
g260
(g1519
g262
Ntp3483
Rp3484
(dp3485
g1523
g1247
sg1524
g1546
sg287
g1254
sbsS'IwTPage.h'
p3486
g260
(g1519
g262
Ntp3487
Rp3488
(dp3489
g1523
g1339
sg1524
g1681
sg287
g1337
sbsS'IwResSerialise.h'
p3490
g260
(g1519
g262
Ntp3491
Rp3492
(dp3493
g1523
g1315
sg1524
g1830
sg287
g1327
sbsS's3eCrypto.h'
p3494
g260
(g1519
g262
Ntp3495
Rp3496
(dp3497
g1523
g1536
sg1524
g1552
sg287
S'c:/marmalade/6.3.3beta/s3e/h/s3eCrypto.h'
p3498
sbsS's3eKeyboard.h'
p3499
g260
(g1519
g262
Ntp3500
Rp3501
(dp3502
g1523
g1536
sg1524
g1552
sg287
S'c:/marmalade/6.3.3beta/s3e/h/s3eKeyboard.h'
p3503
sbsS'fcntl.h'
p3504
g260
(g1519
g262
Ntp3505
Rp3506
(dp3507
g1523
g1536
sg1524
g1558
sg287
S'c:/marmalade/6.3.3beta/s3e/h/std/fcntl.h'
p3508
sbsVsqlite3ext.h
p3509
g260
(g1519
g262
Ntp3510
Rp3511
(dp3512
g1523
g1511
sg1524
g1939
sg287
g1512
sbsS'BaseAtlas.cpp'
p3513
g260
(g1519
g262
Ntp3514
Rp3515
(dp3516
g1523
g903
sg1524
g1531
sg287
g924
sbsS'memory.h'
p3517
g260
(g1519
g262
Ntp3518
Rp3519
(dp3520
g1523
g1536
sg1524
g1558
sg287
S'c:/marmalade/6.3.3beta/s3e/h/std/memory.h'
p3521
sbsVsqlite3.h
p3522
g260
(g1519
g262
Ntp3523
Rp3524
(dp3525
g1523
g1511
sg1524
g1939
sg287
g1509
sbsS'pthread.h'
p3526
g260
(g1519
g262
Ntp3527
Rp3528
(dp3529
g1523
g1536
sg1524
g1558
sg287
S'c:/marmalade/6.3.3beta/s3e/h/std/pthread.h'
p3530
sbsS'IwGeomIntersect.h'
p3531
g260
(g1519
g262
Ntp3532
Rp3533
(dp3534
g1523
g1247
sg1524
g1546
sg287
g1248
sbsS'json_writer.cpp'
p3535
g260
(g1519
g262
Ntp3536
Rp3537
(dp3538
g1523
g903
sg1524
g1731
sg287
g965
sbsS'IwClip.inl'
p3539
g260
(g1519
g262
Ntp3540
Rp3541
(dp3542
g1523
g1339
sg1524
g1681
sg287
g1361
sbsS'ostream.h'
p3543
g260
(g1519
g262
Ntp3544
Rp3545
(dp3546
g1523
g1536
sg1524
g1537
sg287
S'c:/marmalade/6.3.3beta/s3e/h/std/c++/ostream.h'
p3547
sbsS'features.h'
p3548
g260
(g1519
g262
Ntp3549
Rp3550
(dp3551
g1523
g903
sg1524
g1731
sg287
g967
sbsS'stl_user_config.h'
p3552
g260
(g1519
g262
Ntp3553
Rp3554
(dp3555
g1523
g1536
sg1524
g1537
sg287
S'c:/marmalade/6.3.3beta/s3e/h/std/c++/stl_user_config.h'
p3556
sbsS'deque'
p3557
g260
(g1519
g262
Ntp3558
Rp3559
(dp3560
g1523
g1536
sg1524
g1537
sg287
S'c:/marmalade/6.3.3beta/s3e/h/std/c++/deque'
p3561
sbsS'IwProfileMenu.h'
p3562
g260
(g1519
g262
Ntp3563
Rp3564
(dp3565
g1523
g1393
sg1524
g1565
sg287
g1461
sbsS'level_generator.h'
p3566
g260
(g1519
g262
Ntp3567
Rp3568
(dp3569
g1523
g1066
sg1524
g1712
sg287
g1153
sbsS'MarmaladeVersion.h'
p3570
g260
(g1519
g262
Ntp3571
Rp3572
(dp3573
g1523
g1536
sg1524
g1552
sg287
S'c:/marmalade/6.3.3beta/s3e/h/MarmaladeVersion.h'
p3574
sbsS'IwResHandlerWAV.h'
p3575
g260
(g1519
g262
Ntp3576
Rp3577
(dp3578
g1523
g1077
sg1524
g1586
sg287
g1075
sbsS'ios.h'
p3579
g260
(g1519
g262
Ntp3580
Rp3581
(dp3582
g1523
g1536
sg1524
g1537
sg287
S'c:/marmalade/6.3.3beta/s3e/h/std/c++/ios.h'
p3583
sbsS'SkeletonJson.h'
p3584
g260
(g1519
g262
Ntp3585
Rp3586
(dp3587
g1523
g903
sg1524
g1635
sg287
g1001
sbsS'IwImageHelper.h'
p3588
g260
(g1519
g262
Ntp3589
Rp3590
(dp3591
g1523
g1393
sg1524
g1565
sg287
g1487
sbsS'hash_set'
p3592
g260
(g1519
g262
Ntp3593
Rp3594
(dp3595
g1523
g1536
sg1524
g1537
sg287
S'c:/marmalade/6.3.3beta/s3e/h/std/c++/hash_set'
p3596
sbsS'IwGeomFQuat.h'
p3597
g260
(g1519
g262
Ntp3598
Rp3599
(dp3600
g1523
g1247
sg1524
g1546
sg287
g1260
sbsS'jmorecfg.h'
p3601
g260
(g1519
g262
Ntp3602
Rp3603
(dp3604
g1523
g1022
sg1524
g1619
sg287
g1039
sbsS'eglplatform.h'
p3605
g260
(g1519
g262
Ntp3606
Rp3607
(dp3608
g1523
g1536
sg1524
g1905
sg287
S'c:/marmalade/6.3.3beta/s3e/h/EGL/eglplatform.h'
p3609
sbsS'cmath'
p3610
g260
(g1519
g262
Ntp3611
Rp3612
(dp3613
g1523
g1536
sg1524
g1537
sg287
S'c:/marmalade/6.3.3beta/s3e/h/std/c++/cmath'
p3614
sbsS'math_gcc.h'
p3615
g260
(g1519
g262
Ntp3616
Rp3617
(dp3618
g1523
g1536
sg1524
g1558
sg287
S'c:/marmalade/6.3.3beta/s3e/h/std/math_gcc.h'
p3619
sbsS's3eMemory.h'
p3620
g260
(g1519
g262
Ntp3621
Rp3622
(dp3623
g1523
g1536
sg1524
g1552
sg287
S'c:/marmalade/6.3.3beta/s3e/h/s3eMemory.h'
p3624
sbsS'MessageBox.defines.txt'
p3625
g260
(g1519
g262
Ntp3626
Rp3627
(dp3628
g1523
g1187
sg1524
g3187
sg287
g1185
sbsS'strings.h'
p3629
g260
(g1519
g262
Ntp3630
Rp3631
(dp3632
g1523
g1536
sg1524
g1558
sg287
S'c:/marmalade/6.3.3beta/s3e/h/std/strings.h'
p3633
sbsS's3eFile.h'
p3634
g260
(g1519
g262
Ntp3635
Rp3636
(dp3637
g1523
g1536
sg1524
g1552
sg287
S'c:/marmalade/6.3.3beta/s3e/h/s3eFile.h'
p3638
sbsS'IwGxTypes.h'
p3639
g260
(g1519
g262
Ntp3640
Rp3641
(dp3642
g1523
g1339
sg1524
g1681
sg287
g1355
sbsS'cerrno'
p3643
g260
(g1519
g262
Ntp3644
Rp3645
(dp3646
g1523
g1536
sg1524
g1537
sg287
S'c:/marmalade/6.3.3beta/s3e/h/std/c++/cerrno'
p3647
sbsS'IwSoundManager.cpp'
p3648
g260
(g1519
g262
Ntp3649
Rp3650
(dp3651
g1523
g1077
sg1524
g1586
sg287
g1113
sbsS'soundengine.mkf'
p3652
g260
(g1519
g262
Ntp3653
Rp3654
(dp3655
g1523
g1108
sg1524
g1586
sg287
g1106
sbsS'resource.h'
p3656
g260
(g1519
g262
Ntp3657
Rp3658
(dp3659
g1523
g1536
sg1524
g1699
sg287
S'c:/marmalade/6.3.3beta/s3e/h/std/sys/resource.h'
p3660
sbsS'clocale'
p3661
g260
(g1519
g262
Ntp3662
Rp3663
(dp3664
g1523
g1536
sg1524
g1537
sg287
S'c:/marmalade/6.3.3beta/s3e/h/std/c++/clocale'
p3665
sbsS'csetjmp'
p3666
g260
(g1519
g262
Ntp3667
Rp3668
(dp3669
g1523
g1536
sg1524
g1537
sg287
S'c:/marmalade/6.3.3beta/s3e/h/std/c++/csetjmp'
p3670
sbsS'IwTextParserITX.h'
p3671
g260
(g1519
g262
Ntp3672
Rp3673
(dp3674
g1523
g1393
sg1524
g1565
sg287
g1439
sbsS's3eAndroidJNI.h'
p3675
g260
(g1519
g262
Ntp3676
Rp3677
(dp3678
g1523
g1536
sg1524
g1789
sg287
S'c:/marmalade/6.3.3beta/s3e/h/ext/s3eAndroidJNI.h'
p3679
sbsS'stdexcept'
p3680
g260
(g1519
g262
Ntp3681
Rp3682
(dp3683
g1523
g1536
sg1524
g1537
sg287
S'c:/marmalade/6.3.3beta/s3e/h/std/c++/stdexcept'
p3684
sbsS'math.h'
p3685
g260
(g1519
g262
Ntp3686
Rp3687
(dp3688
g1523
g1536
sg1524
g1558
sg287
S'c:/marmalade/6.3.3beta/s3e/h/std/math.h'
p3689
sbsS'stdbool.h'
p3690
g260
(g1519
g262
Ntp3691
Rp3692
(dp3693
g1523
g1536
sg1524
g1558
sg287
S'c:/marmalade/6.3.3beta/s3e/h/std/stdbool.h'
p3694
sbsS'uio.h'
p3695
g260
(g1519
g262
Ntp3696
Rp3697
(dp3698
g1523
g1536
sg1524
g1699
sg287
S'c:/marmalade/6.3.3beta/s3e/h/std/sys/uio.h'
p3699
sbsS'IwUncopyable.h'
p3700
g260
(g1519
g262
Ntp3701
Rp3702
(dp3703
g1523
g1393
sg1524
g1565
sg287
g1449
sbsS'AwmInput.h'
p3704
g260
(g1519
g262
Ntp3705
Rp3706
(dp3707
g1523
g1066
sg1524
g1925
sg287
g1169
sbssS'tests'
p3708
(lp3709
sS'project_name'
p3710
g268
sS'root_file'
p3711
g113
sS'current_root'
p3712
S'c:/Users/Bilal/Repositories/GameJam2'
p3713
sS'dependencies'
p3714
(lp3715
sS'include_paths'
p3716
(lp3717
Vc:/users/bilal/appdata/roaming/marmalade/packages/6.3.3/sqlite_3.6.10/h
p3718
aS'c:/marmalade/6.3.3beta/modules/third_party/libjpeg/h'
p3719
aS'c:/marmalade/6.3.3beta/modules/third_party/zlib/h'
p3720
aS'c:/marmalade/6.3.3beta/modules/third_party/libpng/h'
p3721
aS'c:/marmalade/6.3.3beta/modules/iwutil/h'
p3722
aS'c:/marmalade/6.3.3beta/modules/iwgeom/h'
p3723
aS'c:/marmalade/6.3.3beta/modules/iwresmanager/h'
p3724
aS'c:/marmalade/6.3.3beta/modules/iwgl/h'
p3725
aS'c:/marmalade/6.3.3beta/modules/iwgx/h'
p3726
aS'c:/marmalade/6.3.3beta/modules/third_party/tiniconv/source'
p3727
aS'c:/marmalade/6.3.3beta/modules/iwgxfont/h'
p3728
aS'c:/marmalade/6.3.3beta/modules/iw2d/h'
p3729
aS'c:/marmalade/6.3.3beta/examples/soundengine/h'
p3730
aS'c:/marmalade/6.3.3beta/examples/soundengine/source'
p3731
aS'c:/marmalade/6.3.3beta/extensions/messagebox/h'
p3732
aS'c:/users/bilal/repositories/gamejam2/source'
p3733
aS'c:/users/bilal/repositories/gamejam2/includes'
p3734
aS'c:/Users/Bilal/Repositories/GameJam2/source/util'
p3735
aS'c:/Users/Bilal/Repositories/GameJam2/source/interfaces'
p3736
aS'c:/Users/Bilal/Repositories/GameJam2/source/awm'
p3737
aS'c:/marmalade/6.3.3beta/s3e/h'
p3738
aS'c:/marmalade/6.3.3beta/s3e/h/ext'
p3739
aS'c:/marmalade/6.3.3beta/s3e/h/std'
p3740
aS'c:/marmalade/6.3.3beta/s3e/h/std/c++'
p3741
aS'c:/marmalade/6.3.3beta/s3e/h/ext_legacy'
p3742
aS'c:/marmalade/6.3.3beta/s3e/h/legacy'
p3743
asS'weak_frameworks'
p3744
(lp3745
sS'extprojects'
p3746
(dp3747
sg589
(dp3748
g583
(lp3749
(S'c:/Users/Bilal/Repositories/GameJam2/data'
p3750
S'.'
p3751
I0
tp3752
assS'macro_types'
p3753
(dp3754
g524
I1
sg525
I0
sg526
I0
sg527
I0
sg529
I0
sg530
I0
sg531
I0
sg532
I0
sg533
I0
sg535
I0
sg536
I0
sg537
I0
sg538
I0
sg539
I0
sg540
I0
sg542
I0
sg543
I0
sg544
I0
sg545
I0
sg546
I0
sg547
I1
sg548
I0
sg549
I0
sg550
I0
sg551
I0
sg552
I0
sg553
I01
sg554
I1
sg555
I0
sg557
I0
sg558
I0
sg559
I0
sg560
I0
ssS'commands'
p3755
(lp3756
sg591
(g890
S'VC11'
p3757
S'X86ARM'
p3758
tp3759
sS'subprojectOptions'
p3760
(dp3761
g595
(lp3762
sg597
Nsg599
Nsg747
Nsg602
Nsg603
Nsg604
Nsg605
Nsg606
Nsg607
Nsg608
(lp3763
sg610
Nsg748
Nsg614
Nsg615
Nsg616
Nsg617
Nsg618
Nsg619
Nsg620
Nsg621
Nsg624
Nsg625
(lp3764
sg874
Nsg839
Nsg628
Nsg629
Nsg630
Nsg836
Nsg631
Nsg632
Nsg633
Nsg634
Nsg635
Nsg636
Nsg637
Nsg638
Nsg639
Nsg843
Nsg641
Nsg642
Nsg835
Nsg643
Nsg644
Nsg645
Nsg646
Nsg647
Nsg649
Nsg698
Nsg651
Nsg751
Nsg655
Nsg656
Nsg658
Nsg659
Nsg660
Nsg661
Nsg662
Nsg663
Nsg664
Nsg665
Nsg666
Nsg667
Nsg865
Nsg752
Nsg668
Nsg670
Nsg671
Nsg673
Nsg674
Nsg675
Nsg676
(lp3765
sg679
Nsg680
Nsg681
Nsg682
Nsg683
Nsg684
Nsg685
Nsg686
Nsg687
Nsg757
Nsg689
Nsg691
Nsg694
Nsg695
Nsg696
Nsg697
Nsg650
Nsg699
Nsg758
Nsg709
Nsg704
Nsg705
Nsg706
Nsg707
Nsg708
Nsg701
(lp3766
g703
asg710
Nsg859
Nsg712
Nsg713
Nsg714
Nsg715
Nsg716
Nsg717
Nsg718
Nsg719
Nsg760
Nsg721
Nsg866
Nsg722
(lp3767
sg761
Nsg725
Nsg860
Nsg727
(lp3768
sg729
Nsg730
Nsg731
Nsg732
Nsg733
Nsg693
Nsg736
Nsg737
Nsg738
Nsg739
Nsg740
Nsg741
(lp3769
sg745
Nsg746
Nsg600
(lp3770
sg887
Nsg613
Nsg749
Nsg750
Nsg858
Nsg652
(lp3771
g654
asg840
Nsg611
Nsg753
Nsg754
Nsg755
Nsg756
Nsg688
Nsg700
Nsg759
Nsg720
Nsg724
Nsg762
Nsg763
Nsg764
Nsg765
Nsg863
Nsg867
Nsg767
Nsg768
Nsg769
Nsg770
Nsg771
Nsg772
Nsg773
Nsg774
Nsg775
(lp3772
g777
asg778
Nsg779
Nsg780
Nsg781
Nsg782
Nsg783
Nsg784
(lp3773
g786
asg787
Nsg788
Nsg789
Nsg790
Nsg791
Nsg792
Nsg793
(lp3774
g795
asg796
Nsg797
Nsg798
Nsg799
Nsg800
Nsg801
Nsg802
Nsg803
Nsg804
Nsg819
Nsg672
Nsg821
Nsg884
Nsg808
Nsg809
Nsg810
Nsg822
Nsg813
Nsg814
Nsg815
(lp3775
sg817
Nsg818
Nsg622
(lp3776
sg820
Nsg807
Nsg869
Nsg812
Nsg823
Nsg833
Nsg824
Nsg881
Nsg826
Nsg827
Nsg828
Nsg829
Nsg830
Nsg831
Nsg832
Nsg734
Nsg834
Nsg657
Nsg640
Nsg837
Nsg838
Nsg627
Nsg806
Nsg841
Nsg842
Nsg735
Nsg844
Nsg845
Nsg846
Nsg847
Nsg848
Nsg849
Nsg850
Nsg851
Nsg852
Nsg853
Nsg854
(lp3777
g856
asg857
Nsg648
Nsg711
Nsg726
Nsg861
Nsg862
Nsg743
(lp3778
sg864
Nsg669
Nsg612
Nsg766
Nsg868
Nsg811
Nsg870
Nsg871
Nsg872
Nsg873
Nsg690
Nsg875
Nsg876
Nsg877
Nsg878
Nsg879
Nsg880
Nsg825
Nsg882
Nsg883
Nsg805
Nsg885
Nsg886
Nsg598
Nsg888
NssS'build_libs'
p3779
(dp3780
sS'frameworks'
p3781
(lp3782
sS'environ'
p3783
(dp3784
sS'target_name_debug'
p3785
g268
sS'builders'
p3786
(dp3787
S'.S'
p3788
(dp3789
S'rvct'
p3790
(lp3791
S'.obj'
p3792
aS'echo ARM Assembling(RVCT) ${SOURCE}...'
p3793
aS'c:/marmalade/6.3.3beta/s3e\\rvct\\bin\\armasm -o ${TARGET} ${SOURCE}'
p3794
asS'gcc'
p3795
(lp3796
g3792
aS'echo ARM Assembling(GCC) ${SOURCE}...'
p3797
aS'c:/marmalade/6.3.3beta/s3e\\gcc\\bin\\arm-none-eabi-gcc -c -o ${TARGET} ${SOURCE}'
p3798
asS'ppu'
p3799
(lp3800
S'.a'
p3801
aS'echo PPU Assembling(SNC) ${SOURCE}...'
p3802
aS'c:/marmalade/6.3.3beta/s3e\\rvct\\bin\\armasm -o ${TARGET} ${SOURCE}'
p3803
assS'.s'
p3804
g3789
sS'.vp'
p3805
(lp3806
NaS'"C:/Marmalade/6.3.3BETA/s3e/python/python.exe" "c:/marmalade/6.3.3beta/modules/iwgx/tools/compile_shaders.py" ${SOURCE}'
p3807
assg593
g0
sbtp3808
.